ARM GAS  C:\Users\czsta\AppData\Local\Temp\cc6TODF4.s 			page 1


   1              		.cpu cortex-m3
   2              		.eabi_attribute 20, 1
   3              		.eabi_attribute 21, 1
   4              		.eabi_attribute 23, 3
   5              		.eabi_attribute 24, 1
   6              		.eabi_attribute 25, 1
   7              		.eabi_attribute 26, 1
   8              		.eabi_attribute 30, 2
   9              		.eabi_attribute 34, 1
  10              		.eabi_attribute 18, 4
  11              		.file	"exti.c"
  12              		.text
  13              		.section	.text.EXTI0_IRQHandler,"ax",%progbits
  14              		.align	1
  15              		.p2align 2,,3
  16              		.global	EXTI0_IRQHandler
  17              		.syntax unified
  18              		.thumb
  19              		.thumb_func
  20              		.fpu softvfp
  22              	EXTI0_IRQHandler:
  23              		@ args = 0, pretend = 0, frame = 0
  24              		@ frame_needed = 0, uses_anonymous_args = 0
  25 0000 08B5     		push	{r3, lr}
  26 0002 0A20     		movs	r0, #10
  27 0004 FFF7FEFF 		bl	delay_ms
  28 0008 094B     		ldr	r3, .L5
  29 000a 1B68     		ldr	r3, [r3]
  30 000c 012B     		cmp	r3, #1
  31 000e 0BD1     		bne	.L2
  32 0010 0849     		ldr	r1, .L5+4
  33 0012 094A     		ldr	r2, .L5+8
  34 0014 0B68     		ldr	r3, [r1]
  35 0016 B3FA83F3 		clz	r3, r3
  36 001a 5B09     		lsrs	r3, r3, #5
  37 001c 0B60     		str	r3, [r1]
  38 001e 1368     		ldr	r3, [r2]
  39 0020 B3FA83F3 		clz	r3, r3
  40 0024 5B09     		lsrs	r3, r3, #5
  41 0026 1360     		str	r3, [r2]
  42              	.L2:
  43 0028 0122     		movs	r2, #1
  44 002a 044B     		ldr	r3, .L5+12
  45 002c 5A61     		str	r2, [r3, #20]
  46 002e 08BD     		pop	{r3, pc}
  47              	.L6:
  48              		.align	2
  49              	.L5:
  50 0030 00012142 		.word	1109459200
  51 0034 A0012142 		.word	1109459360
  52 0038 88812242 		.word	1109557640
  53 003c 00040140 		.word	1073808384
  55              		.section	.text.EXTI9_5_IRQHandler,"ax",%progbits
  56              		.align	1
  57              		.p2align 2,,3
  58              		.global	EXTI9_5_IRQHandler
  59              		.syntax unified
ARM GAS  C:\Users\czsta\AppData\Local\Temp\cc6TODF4.s 			page 2


  60              		.thumb
  61              		.thumb_func
  62              		.fpu softvfp
  64              	EXTI9_5_IRQHandler:
  65              		@ args = 0, pretend = 0, frame = 0
  66              		@ frame_needed = 0, uses_anonymous_args = 0
  67 0000 08B5     		push	{r3, lr}
  68 0002 0A20     		movs	r0, #10
  69 0004 FFF7FEFF 		bl	delay_ms
  70 0008 064B     		ldr	r3, .L10
  71 000a 1B68     		ldr	r3, [r3]
  72 000c 2BB9     		cbnz	r3, .L8
  73 000e 064A     		ldr	r2, .L10+4
  74 0010 1368     		ldr	r3, [r2]
  75 0012 B3FA83F3 		clz	r3, r3
  76 0016 5B09     		lsrs	r3, r3, #5
  77 0018 1360     		str	r3, [r2]
  78              	.L8:
  79 001a 2022     		movs	r2, #32
  80 001c 034B     		ldr	r3, .L10+8
  81 001e 5A61     		str	r2, [r3, #20]
  82 0020 08BD     		pop	{r3, pc}
  83              	.L11:
  84 0022 00BF     		.align	2
  85              	.L10:
  86 0024 14012242 		.word	1109524756
  87 0028 A0012142 		.word	1109459360
  88 002c 00040140 		.word	1073808384
  90              		.section	.text.EXTI15_10_IRQHandler,"ax",%progbits
  91              		.align	1
  92              		.p2align 2,,3
  93              		.global	EXTI15_10_IRQHandler
  94              		.syntax unified
  95              		.thumb
  96              		.thumb_func
  97              		.fpu softvfp
  99              	EXTI15_10_IRQHandler:
 100              		@ args = 0, pretend = 0, frame = 0
 101              		@ frame_needed = 0, uses_anonymous_args = 0
 102 0000 08B5     		push	{r3, lr}
 103 0002 0A20     		movs	r0, #10
 104 0004 FFF7FEFF 		bl	delay_ms
 105 0008 064B     		ldr	r3, .L15
 106 000a 1B68     		ldr	r3, [r3]
 107 000c 2BB9     		cbnz	r3, .L13
 108 000e 064A     		ldr	r2, .L15+4
 109 0010 1368     		ldr	r3, [r2]
 110 0012 B3FA83F3 		clz	r3, r3
 111 0016 5B09     		lsrs	r3, r3, #5
 112 0018 1360     		str	r3, [r2]
 113              	.L13:
 114 001a 4FF40042 		mov	r2, #32768
 115 001e 034B     		ldr	r3, .L15+8
 116 0020 5A61     		str	r2, [r3, #20]
 117 0022 08BD     		pop	{r3, pc}
 118              	.L16:
 119              		.align	2
ARM GAS  C:\Users\czsta\AppData\Local\Temp\cc6TODF4.s 			page 3


 120              	.L15:
 121 0024 3C012142 		.word	1109459260
 122 0028 88812242 		.word	1109557640
 123 002c 00040140 		.word	1073808384
 125              		.section	.text.EXTI_Init,"ax",%progbits
 126              		.align	1
 127              		.p2align 2,,3
 128              		.global	EXTI_Init
 129              		.syntax unified
 130              		.thumb
 131              		.thumb_func
 132              		.fpu softvfp
 134              	EXTI_Init:
 135              		@ args = 0, pretend = 0, frame = 0
 136              		@ frame_needed = 0, uses_anonymous_args = 0
 137 0000 10B5     		push	{r4, lr}
 138 0002 FFF7FEFF 		bl	KEY_Init
 139 0006 0021     		movs	r1, #0
 140 0008 0222     		movs	r2, #2
 141 000a 0846     		mov	r0, r1
 142 000c FFF7FEFF 		bl	Ex_NVIC_Config
 143 0010 0122     		movs	r2, #1
 144 0012 0521     		movs	r1, #5
 145 0014 0220     		movs	r0, #2
 146 0016 FFF7FEFF 		bl	Ex_NVIC_Config
 147 001a 0122     		movs	r2, #1
 148 001c 0F21     		movs	r1, #15
 149 001e 0020     		movs	r0, #0
 150 0020 FFF7FEFF 		bl	Ex_NVIC_Config
 151 0024 0223     		movs	r3, #2
 152 0026 0622     		movs	r2, #6
 153 0028 1946     		mov	r1, r3
 154 002a 1846     		mov	r0, r3
 155 002c FFF7FEFF 		bl	MY_NVIC_Init
 156 0030 0223     		movs	r3, #2
 157 0032 1722     		movs	r2, #23
 158 0034 1846     		mov	r0, r3
 159 0036 0121     		movs	r1, #1
 160 0038 FFF7FEFF 		bl	MY_NVIC_Init
 161 003c BDE81040 		pop	{r4, lr}
 162 0040 0223     		movs	r3, #2
 163 0042 2822     		movs	r2, #40
 164 0044 1846     		mov	r0, r3
 165 0046 0021     		movs	r1, #0
 166 0048 FFF7FEBF 		b	MY_NVIC_Init
 168              		.ident	"GCC: (GNU Tools for Arm Embedded Processors 7-2018-q2-update) 7.3.1 20180622 (release) [AR
ARM GAS  C:\Users\czsta\AppData\Local\Temp\cc6TODF4.s 			page 4

