ARM GAS  C:\Users\czsta\AppData\Local\Temp\ccqYu3W2.s 			page 1


   1              		.cpu cortex-m3
   2              		.eabi_attribute 20, 1
   3              		.eabi_attribute 21, 1
   4              		.eabi_attribute 23, 3
   5              		.eabi_attribute 24, 1
   6              		.eabi_attribute 25, 1
   7              		.eabi_attribute 26, 1
   8              		.eabi_attribute 30, 2
   9              		.eabi_attribute 34, 1
  10              		.eabi_attribute 18, 4
  11              		.file	"ILI93xx.c"
  12              		.text
  13              	.Ltext0:
  14              		.cfi_sections	.debug_frame
  15              		.section	.text.LCD_WR_REG,"ax",%progbits
  16              		.align	1
  17              		.p2align 2,,3
  18              		.global	LCD_WR_REG
  19              		.syntax unified
  20              		.thumb
  21              		.thumb_func
  22              		.fpu softvfp
  24              	LCD_WR_REG:
  25              	.LFB32:
  26              		.file 1 "HARDWARE/LCD/ILI93xx.c"
   1:HARDWARE/LCD/ILI93xx.c **** #include "lcd.h"
   2:HARDWARE/LCD/ILI93xx.c **** #include "stdlib.h"
   3:HARDWARE/LCD/ILI93xx.c **** #include "font.h" 
   4:HARDWARE/LCD/ILI93xx.c **** #include "usart.h"
   5:HARDWARE/LCD/ILI93xx.c **** #include "delay.h"	 
   6:HARDWARE/LCD/ILI93xx.c **** //////////////////////////////////////////////////////////////////////////////////	 
   7:HARDWARE/LCD/ILI93xx.c **** //本程序只供学习使用，未经作者许可，不得用于其它任何用途
   8:HARDWARE/LCD/ILI93xx.c **** //ALIENTEK MiniSTM32F103开发板
   9:HARDWARE/LCD/ILI93xx.c **** //2.4寸/2.8寸/3.5寸/4.3寸/7寸 TFT液晶驱动	  
  10:HARDWARE/LCD/ILI93xx.c **** //支持驱动IC型号包括:ILI9341/ILI9325/RM68042/RM68021/ILI9320/ILI9328/LGDP4531/LGDP4535/
  11:HARDWARE/LCD/ILI93xx.c **** //                  SPFD5408/1505/B505/C505/NT35310/NT35510/SSD1963等		    
  12:HARDWARE/LCD/ILI93xx.c **** //正点原子@ALIENTEK
  13:HARDWARE/LCD/ILI93xx.c **** //技术论坛:www.openedv.com
  14:HARDWARE/LCD/ILI93xx.c **** //创建日期:2010/7/4
  15:HARDWARE/LCD/ILI93xx.c **** //版本：V3.0
  16:HARDWARE/LCD/ILI93xx.c **** //版权所有，盗版必究。
  17:HARDWARE/LCD/ILI93xx.c **** //Copyright(C) 广州市星翼电子科技有限公司 2014-2024
  18:HARDWARE/LCD/ILI93xx.c **** //All rights reserved	
  19:HARDWARE/LCD/ILI93xx.c **** //********************************************************************************
  20:HARDWARE/LCD/ILI93xx.c **** //V1.2修改说明
  21:HARDWARE/LCD/ILI93xx.c **** //支持了SPFD5408的驱动,另外把液晶ID直接打印成HEX格式.方便查看LCD驱动IC.
  22:HARDWARE/LCD/ILI93xx.c **** //V1.3
  23:HARDWARE/LCD/ILI93xx.c **** //加入了快速IO的支持
  24:HARDWARE/LCD/ILI93xx.c **** //修改了背光控制的极性（适用于V1.8及以后的开发板版本）
  25:HARDWARE/LCD/ILI93xx.c **** //对于1.8版本之前(不包括1.8)的液晶模块,请修改LCD_Init函数的LCD_LED=1;为LCD_LED
  26:HARDWARE/LCD/ILI93xx.c **** //V1.4
  27:HARDWARE/LCD/ILI93xx.c **** //修改了LCD_ShowChar函数，使用画点功能画字符。
  28:HARDWARE/LCD/ILI93xx.c **** //加入了横竖屏显示的支持
  29:HARDWARE/LCD/ILI93xx.c **** //V1.5 20110730
  30:HARDWARE/LCD/ILI93xx.c **** //1,修改了B505液晶读颜色有误的bug.
  31:HARDWARE/LCD/ILI93xx.c **** //2,修改了快速IO及横竖屏的设置方式.
  32:HARDWARE/LCD/ILI93xx.c **** //V1.6 20111116
ARM GAS  C:\Users\czsta\AppData\Local\Temp\ccqYu3W2.s 			page 2


  33:HARDWARE/LCD/ILI93xx.c **** //1,加入对LGDP4535液晶的驱动支持
  34:HARDWARE/LCD/ILI93xx.c **** //V1.7 20120713
  35:HARDWARE/LCD/ILI93xx.c **** //1,增加LCD_RD_DATA函数
  36:HARDWARE/LCD/ILI93xx.c **** //2,增加对ILI9341的支持
  37:HARDWARE/LCD/ILI93xx.c **** //3,增加ILI9325的独立驱动代码
  38:HARDWARE/LCD/ILI93xx.c **** //4,增加LCD_Scan_Dir函数(慎重使用)	  
  39:HARDWARE/LCD/ILI93xx.c **** //6,另外修改了部分原来的函数,以适应9341的操作
  40:HARDWARE/LCD/ILI93xx.c **** //V1.8 20120905
  41:HARDWARE/LCD/ILI93xx.c **** //1,加入LCD重要参数设置结构体lcddev
  42:HARDWARE/LCD/ILI93xx.c **** //2,加入LCD_Display_Dir函数,支持在线横竖屏切换
  43:HARDWARE/LCD/ILI93xx.c **** //V1.9 20120911
  44:HARDWARE/LCD/ILI93xx.c **** //1,新增RM68042驱动（ID:6804），但是6804不支持横屏显示！！原因：改变扫描
  45:HARDWARE/LCD/ILI93xx.c **** //导致6804坐标设置失效，试过很多方法都不行，暂时无解。
  46:HARDWARE/LCD/ILI93xx.c **** //V2.0 20120924
  47:HARDWARE/LCD/ILI93xx.c **** //在不硬件复位的情况下,ILI9341的ID读取会被误读成9300,修改LCD_Init,将无法识
  48:HARDWARE/LCD/ILI93xx.c **** //的情况（读到ID为9300/非法ID）,强制指定驱动IC为ILI9341，执行9341的初始化
  49:HARDWARE/LCD/ILI93xx.c **** //V2.1 20120930
  50:HARDWARE/LCD/ILI93xx.c **** //修正ILI9325读颜色的bug。
  51:HARDWARE/LCD/ILI93xx.c **** //V2.2 20121007
  52:HARDWARE/LCD/ILI93xx.c **** //修正LCD_Scan_Dir的bug。
  53:HARDWARE/LCD/ILI93xx.c **** //V2.3 20130120
  54:HARDWARE/LCD/ILI93xx.c **** //新增6804支持横屏显示
  55:HARDWARE/LCD/ILI93xx.c **** //V2.4 20131120
  56:HARDWARE/LCD/ILI93xx.c **** //1,新增NT35310（ID:5310）驱动器的支持
  57:HARDWARE/LCD/ILI93xx.c **** //2,新增LCD_Set_Window函数,用于设置窗口,对快速填充,比较有用,但是该函数在
  58:HARDWARE/LCD/ILI93xx.c **** //V2.5 20140211
  59:HARDWARE/LCD/ILI93xx.c **** //1,新增NT35510（ID:5510）驱动器的支持
  60:HARDWARE/LCD/ILI93xx.c **** //V2.6 20140504
  61:HARDWARE/LCD/ILI93xx.c **** //1,新增ASCII 24*24字体的支持(更多字体用户可以自行添加)  
  62:HARDWARE/LCD/ILI93xx.c **** //2,修改部分函数参数,以支持MDK -O2优化
  63:HARDWARE/LCD/ILI93xx.c **** //3,针对9341/35310/35510,写时间设置为最快,尽可能的提高速度
  64:HARDWARE/LCD/ILI93xx.c **** //4,去掉了SSD1289的支持,因为1289实在是太慢了,读周期要1us...简直奇葩.不适合
  65:HARDWARE/LCD/ILI93xx.c **** //5,修正68042及C505等IC的读颜色函数的bug.
  66:HARDWARE/LCD/ILI93xx.c **** //V2.7 20140710
  67:HARDWARE/LCD/ILI93xx.c **** //1,修正LCD_Color_Fill函数的一个bug. 
  68:HARDWARE/LCD/ILI93xx.c **** //2,修正LCD_Scan_Dir函数的一个bug.
  69:HARDWARE/LCD/ILI93xx.c **** //V2.8 20140721
  70:HARDWARE/LCD/ILI93xx.c **** //1,解决MDK使用-O2优化时LCD_ReadPoint函数读点失效的问题.
  71:HARDWARE/LCD/ILI93xx.c **** //2,修正LCD_Scan_Dir横屏时设置的扫描方式显示不全的bug.
  72:HARDWARE/LCD/ILI93xx.c **** //V2.9 20141130
  73:HARDWARE/LCD/ILI93xx.c **** //1,新增对SSD1963 LCD的支持.
  74:HARDWARE/LCD/ILI93xx.c **** //2,新增LCD_SSD_BackLightSet函数
  75:HARDWARE/LCD/ILI93xx.c **** //3,取消ILI93XX的Rxx寄存器定义
  76:HARDWARE/LCD/ILI93xx.c **** //V3.0 20150423
  77:HARDWARE/LCD/ILI93xx.c **** //修改SSD1963 LCD屏的驱动参数.
  78:HARDWARE/LCD/ILI93xx.c **** //////////////////////////////////////////////////////////////////////////////////	 
  79:HARDWARE/LCD/ILI93xx.c **** 
  80:HARDWARE/LCD/ILI93xx.c **** 
  81:HARDWARE/LCD/ILI93xx.c **** //LCD的画笔颜色和背景色	   
  82:HARDWARE/LCD/ILI93xx.c **** u16 POINT_COLOR=0x0000;	//画笔颜色
  83:HARDWARE/LCD/ILI93xx.c **** u16 BACK_COLOR=0xFFFF;  //背景色 
  84:HARDWARE/LCD/ILI93xx.c **** 
  85:HARDWARE/LCD/ILI93xx.c **** //管理LCD重要参数
  86:HARDWARE/LCD/ILI93xx.c **** //默认为竖屏
  87:HARDWARE/LCD/ILI93xx.c **** _lcd_dev lcddev;
  88:HARDWARE/LCD/ILI93xx.c **** 	 					    
  89:HARDWARE/LCD/ILI93xx.c **** //写寄存器函数
ARM GAS  C:\Users\czsta\AppData\Local\Temp\ccqYu3W2.s 			page 3


  90:HARDWARE/LCD/ILI93xx.c **** //data:寄存器值
  91:HARDWARE/LCD/ILI93xx.c **** void LCD_WR_REG(u16 data)
  92:HARDWARE/LCD/ILI93xx.c **** { 
  27              		.loc 1 92 0
  28              		.cfi_startproc
  29              		@ args = 0, pretend = 0, frame = 0
  30              		@ frame_needed = 0, uses_anonymous_args = 0
  31              		@ link register save eliminated.
  32              	.LVL0:
  33 0000 30B4     		push	{r4, r5}
  34              	.LCFI0:
  35              		.cfi_def_cfa_offset 8
  36              		.cfi_offset 4, -8
  37              		.cfi_offset 5, -4
  93:HARDWARE/LCD/ILI93xx.c **** 	LCD_RS_CLR;//写地址  
  94:HARDWARE/LCD/ILI93xx.c ****  	LCD_CS_CLR; 
  38              		.loc 1 94 0
  39 0002 4FF40072 		mov	r2, #512
  93:HARDWARE/LCD/ILI93xx.c **** 	LCD_RS_CLR;//写地址  
  40              		.loc 1 93 0
  41 0006 4FF48075 		mov	r5, #256
  95:HARDWARE/LCD/ILI93xx.c **** 	DATAOUT(data); 
  96:HARDWARE/LCD/ILI93xx.c **** 	LCD_WR_CLR; 
  42              		.loc 1 96 0
  43 000a 8021     		movs	r1, #128
  93:HARDWARE/LCD/ILI93xx.c **** 	LCD_RS_CLR;//写地址  
  44              		.loc 1 93 0
  45 000c 044B     		ldr	r3, .L4
  95:HARDWARE/LCD/ILI93xx.c **** 	DATAOUT(data); 
  46              		.loc 1 95 0
  47 000e 054C     		ldr	r4, .L4+4
  93:HARDWARE/LCD/ILI93xx.c **** 	LCD_RS_CLR;//写地址  
  48              		.loc 1 93 0
  49 0010 5D61     		str	r5, [r3, #20]
  94:HARDWARE/LCD/ILI93xx.c **** 	DATAOUT(data); 
  50              		.loc 1 94 0
  51 0012 5A61     		str	r2, [r3, #20]
  95:HARDWARE/LCD/ILI93xx.c **** 	DATAOUT(data); 
  52              		.loc 1 95 0
  53 0014 E060     		str	r0, [r4, #12]
  54              		.loc 1 96 0
  55 0016 5961     		str	r1, [r3, #20]
  97:HARDWARE/LCD/ILI93xx.c **** 	LCD_WR_SET; 
  98:HARDWARE/LCD/ILI93xx.c ****  	LCD_CS_SET;   
  99:HARDWARE/LCD/ILI93xx.c **** }
  56              		.loc 1 99 0
  57 0018 30BC     		pop	{r4, r5}
  58              	.LCFI1:
  59              		.cfi_restore 5
  60              		.cfi_restore 4
  61              		.cfi_def_cfa_offset 0
  97:HARDWARE/LCD/ILI93xx.c **** 	LCD_WR_SET; 
  62              		.loc 1 97 0
  63 001a 1961     		str	r1, [r3, #16]
  98:HARDWARE/LCD/ILI93xx.c **** }
  64              		.loc 1 98 0
  65 001c 1A61     		str	r2, [r3, #16]
ARM GAS  C:\Users\czsta\AppData\Local\Temp\ccqYu3W2.s 			page 4


  66              		.loc 1 99 0
  67 001e 7047     		bx	lr
  68              	.L5:
  69              		.align	2
  70              	.L4:
  71 0020 00100140 		.word	1073811456
  72 0024 000C0140 		.word	1073810432
  73              		.cfi_endproc
  74              	.LFE32:
  76              		.section	.text.LCD_WR_DATAX,"ax",%progbits
  77              		.align	1
  78              		.p2align 2,,3
  79              		.global	LCD_WR_DATAX
  80              		.syntax unified
  81              		.thumb
  82              		.thumb_func
  83              		.fpu softvfp
  85              	LCD_WR_DATAX:
  86              	.LFB64:
  87              		.cfi_startproc
  88              		@ args = 0, pretend = 0, frame = 0
  89              		@ frame_needed = 0, uses_anonymous_args = 0
  90              		@ link register save eliminated.
  91 0000 30B4     		push	{r4, r5}
  92              	.LCFI2:
  93              		.cfi_def_cfa_offset 8
  94              		.cfi_offset 4, -8
  95              		.cfi_offset 5, -4
  96 0002 4FF40072 		mov	r2, #512
  97 0006 4FF48075 		mov	r5, #256
  98 000a 8021     		movs	r1, #128
  99 000c 044B     		ldr	r3, .L8
 100 000e 054C     		ldr	r4, .L8+4
 101 0010 1D61     		str	r5, [r3, #16]
 102 0012 5A61     		str	r2, [r3, #20]
 103 0014 E060     		str	r0, [r4, #12]
 104 0016 5961     		str	r1, [r3, #20]
 105 0018 30BC     		pop	{r4, r5}
 106              	.LCFI3:
 107              		.cfi_restore 5
 108              		.cfi_restore 4
 109              		.cfi_def_cfa_offset 0
 110 001a 1961     		str	r1, [r3, #16]
 111 001c 1A61     		str	r2, [r3, #16]
 112 001e 7047     		bx	lr
 113              	.L9:
 114              		.align	2
 115              	.L8:
 116 0020 00100140 		.word	1073811456
 117 0024 000C0140 		.word	1073810432
 118              		.cfi_endproc
 119              	.LFE64:
 121              		.section	.text.LCD_RD_DATA,"ax",%progbits
 122              		.align	1
 123              		.p2align 2,,3
 124              		.global	LCD_RD_DATA
 125              		.syntax unified
ARM GAS  C:\Users\czsta\AppData\Local\Temp\ccqYu3W2.s 			page 5


 126              		.thumb
 127              		.thumb_func
 128              		.fpu softvfp
 130              	LCD_RD_DATA:
 131              	.LFB34:
 100:HARDWARE/LCD/ILI93xx.c **** //写数据函数
 101:HARDWARE/LCD/ILI93xx.c **** //可以替代LCD_WR_DATAX宏,拿时间换空间.
 102:HARDWARE/LCD/ILI93xx.c **** //data:寄存器值
 103:HARDWARE/LCD/ILI93xx.c **** void LCD_WR_DATAX(u16 data)
 104:HARDWARE/LCD/ILI93xx.c **** {
 105:HARDWARE/LCD/ILI93xx.c **** 	LCD_RS_SET;
 106:HARDWARE/LCD/ILI93xx.c **** 	LCD_CS_CLR;
 107:HARDWARE/LCD/ILI93xx.c **** 	DATAOUT(data);
 108:HARDWARE/LCD/ILI93xx.c **** 	LCD_WR_CLR;
 109:HARDWARE/LCD/ILI93xx.c **** 	LCD_WR_SET;
 110:HARDWARE/LCD/ILI93xx.c **** 	LCD_CS_SET;
 111:HARDWARE/LCD/ILI93xx.c **** }
 112:HARDWARE/LCD/ILI93xx.c **** //读LCD数据
 113:HARDWARE/LCD/ILI93xx.c **** //返回值:读到的值
 114:HARDWARE/LCD/ILI93xx.c **** u16 LCD_RD_DATA(void)
 115:HARDWARE/LCD/ILI93xx.c **** {										   
 132              		.loc 1 115 0
 133              		.cfi_startproc
 134              		@ args = 0, pretend = 0, frame = 0
 135              		@ frame_needed = 0, uses_anonymous_args = 0
 116:HARDWARE/LCD/ILI93xx.c **** 	u16 t;
 117:HARDWARE/LCD/ILI93xx.c ****  	GPIOB->CRL=0X88888888; //PB0-7  上拉输入
 118:HARDWARE/LCD/ILI93xx.c **** 	GPIOB->CRH=0X88888888; //PB8-15 上拉输入
 119:HARDWARE/LCD/ILI93xx.c **** 	GPIOB->ODR=0X0000;     //全部输出0
 120:HARDWARE/LCD/ILI93xx.c **** 
 121:HARDWARE/LCD/ILI93xx.c **** 	LCD_RS_SET;
 122:HARDWARE/LCD/ILI93xx.c **** 	LCD_CS_CLR;
 123:HARDWARE/LCD/ILI93xx.c **** 	//读取数据(读寄存器时,并不需要读2次)
 124:HARDWARE/LCD/ILI93xx.c **** 	LCD_RD_CLR;
 125:HARDWARE/LCD/ILI93xx.c **** 	if(lcddev.id==0X8989)delay_us(2);//FOR 8989,延时2us					   
 136              		.loc 1 125 0
 137 0000 48F68911 		movw	r1, #35209
 115:HARDWARE/LCD/ILI93xx.c **** 	u16 t;
 138              		.loc 1 115 0
 139 0004 F8B5     		push	{r3, r4, r5, r6, r7, lr}
 140              	.LCFI4:
 141              		.cfi_def_cfa_offset 24
 142              		.cfi_offset 3, -24
 143              		.cfi_offset 4, -20
 144              		.cfi_offset 5, -16
 145              		.cfi_offset 6, -12
 146              		.cfi_offset 7, -8
 147              		.cfi_offset 14, -4
 117:HARDWARE/LCD/ILI93xx.c **** 	GPIOB->CRH=0X88888888; //PB8-15 上拉输入
 148              		.loc 1 117 0
 149 0006 4FF08832 		mov	r2, #-2004318072
 119:HARDWARE/LCD/ILI93xx.c **** 
 150              		.loc 1 119 0
 151 000a 0027     		movs	r7, #0
 121:HARDWARE/LCD/ILI93xx.c **** 	LCD_CS_CLR;
 152              		.loc 1 121 0
 153 000c 4FF48076 		mov	r6, #256
ARM GAS  C:\Users\czsta\AppData\Local\Temp\ccqYu3W2.s 			page 6


 122:HARDWARE/LCD/ILI93xx.c **** 	//读取数据(读寄存器时,并不需要读2次)
 154              		.loc 1 122 0
 155 0010 4FF40075 		mov	r5, #512
 124:HARDWARE/LCD/ILI93xx.c **** 	if(lcddev.id==0X8989)delay_us(2);//FOR 8989,延时2us					   
 156              		.loc 1 124 0
 157 0014 4024     		movs	r4, #64
 158              		.loc 1 125 0
 159 0016 1148     		ldr	r0, .L14
 117:HARDWARE/LCD/ILI93xx.c **** 	GPIOB->CRH=0X88888888; //PB8-15 上拉输入
 160              		.loc 1 117 0
 161 0018 114B     		ldr	r3, .L14+4
 162              		.loc 1 125 0
 163 001a 8088     		ldrh	r0, [r0, #4]
 117:HARDWARE/LCD/ILI93xx.c **** 	GPIOB->CRH=0X88888888; //PB8-15 上拉输入
 164              		.loc 1 117 0
 165 001c 1A60     		str	r2, [r3]
 166              		.loc 1 125 0
 167 001e 8842     		cmp	r0, r1
 118:HARDWARE/LCD/ILI93xx.c **** 	GPIOB->ODR=0X0000;     //全部输出0
 168              		.loc 1 118 0
 169 0020 5A60     		str	r2, [r3, #4]
 119:HARDWARE/LCD/ILI93xx.c **** 
 170              		.loc 1 119 0
 171 0022 DF60     		str	r7, [r3, #12]
 121:HARDWARE/LCD/ILI93xx.c **** 	LCD_CS_CLR;
 172              		.loc 1 121 0
 173 0024 C3F81064 		str	r6, [r3, #1040]
 122:HARDWARE/LCD/ILI93xx.c **** 	//读取数据(读寄存器时,并不需要读2次)
 174              		.loc 1 122 0
 175 0028 C3F81454 		str	r5, [r3, #1044]
 124:HARDWARE/LCD/ILI93xx.c **** 	if(lcddev.id==0X8989)delay_us(2);//FOR 8989,延时2us					   
 176              		.loc 1 124 0
 177 002c C3F81444 		str	r4, [r3, #1044]
 178              		.loc 1 125 0
 179 0030 10D0     		beq	.L13
 180              	.L11:
 126:HARDWARE/LCD/ILI93xx.c **** 	t=DATAIN;  
 127:HARDWARE/LCD/ILI93xx.c **** 	LCD_RD_SET;
 128:HARDWARE/LCD/ILI93xx.c **** 	LCD_CS_SET; 
 129:HARDWARE/LCD/ILI93xx.c **** 
 130:HARDWARE/LCD/ILI93xx.c **** 	GPIOB->CRL=0X33333333; //PB0-7  上拉输出
 181              		.loc 1 130 0
 182 0032 4FF03332 		mov	r2, #858993459
 127:HARDWARE/LCD/ILI93xx.c **** 	LCD_CS_SET; 
 183              		.loc 1 127 0
 184 0036 4026     		movs	r6, #64
 128:HARDWARE/LCD/ILI93xx.c **** 
 185              		.loc 1 128 0
 186 0038 4FF40075 		mov	r5, #512
 131:HARDWARE/LCD/ILI93xx.c **** 	GPIOB->CRH=0X33333333; //PB8-15 上拉输出
 132:HARDWARE/LCD/ILI93xx.c **** 	GPIOB->ODR=0XFFFF;    //全部输出高
 187              		.loc 1 132 0
 188 003c 4FF6FF74 		movw	r4, #65535
 126:HARDWARE/LCD/ILI93xx.c **** 	LCD_RD_SET;
 189              		.loc 1 126 0
 190 0040 074B     		ldr	r3, .L14+4
 127:HARDWARE/LCD/ILI93xx.c **** 	LCD_CS_SET; 
ARM GAS  C:\Users\czsta\AppData\Local\Temp\ccqYu3W2.s 			page 7


 191              		.loc 1 127 0
 192 0042 0849     		ldr	r1, .L14+8
 126:HARDWARE/LCD/ILI93xx.c **** 	LCD_RD_SET;
 193              		.loc 1 126 0
 194 0044 9868     		ldr	r0, [r3, #8]
 195              	.LVL1:
 127:HARDWARE/LCD/ILI93xx.c **** 	LCD_CS_SET; 
 196              		.loc 1 127 0
 197 0046 0E61     		str	r6, [r1, #16]
 133:HARDWARE/LCD/ILI93xx.c **** 	return t;  
 134:HARDWARE/LCD/ILI93xx.c **** }
 198              		.loc 1 134 0
 199 0048 80B2     		uxth	r0, r0
 128:HARDWARE/LCD/ILI93xx.c **** 
 200              		.loc 1 128 0
 201 004a 0D61     		str	r5, [r1, #16]
 130:HARDWARE/LCD/ILI93xx.c **** 	GPIOB->CRH=0X33333333; //PB8-15 上拉输出
 202              		.loc 1 130 0
 203 004c 1A60     		str	r2, [r3]
 131:HARDWARE/LCD/ILI93xx.c **** 	GPIOB->ODR=0XFFFF;    //全部输出高
 204              		.loc 1 131 0
 205 004e 5A60     		str	r2, [r3, #4]
 132:HARDWARE/LCD/ILI93xx.c **** 	return t;  
 206              		.loc 1 132 0
 207 0050 DC60     		str	r4, [r3, #12]
 208              		.loc 1 134 0
 209 0052 F8BD     		pop	{r3, r4, r5, r6, r7, pc}
 210              	.LVL2:
 211              	.L13:
 125:HARDWARE/LCD/ILI93xx.c **** 	t=DATAIN;  
 212              		.loc 1 125 0 discriminator 1
 213 0054 0220     		movs	r0, #2
 214 0056 FFF7FEFF 		bl	delay_us
 215              	.LVL3:
 216 005a EAE7     		b	.L11
 217              	.L15:
 218              		.align	2
 219              	.L14:
 220 005c 00000000 		.word	lcddev
 221 0060 000C0140 		.word	1073810432
 222 0064 00100140 		.word	1073811456
 223              		.cfi_endproc
 224              	.LFE34:
 226              		.section	.text.LCD_WriteReg,"ax",%progbits
 227              		.align	1
 228              		.p2align 2,,3
 229              		.global	LCD_WriteReg
 230              		.syntax unified
 231              		.thumb
 232              		.thumb_func
 233              		.fpu softvfp
 235              	LCD_WriteReg:
 236              	.LFB35:
 135:HARDWARE/LCD/ILI93xx.c **** //写寄存器
 136:HARDWARE/LCD/ILI93xx.c **** //LCD_Reg:寄存器编号
 137:HARDWARE/LCD/ILI93xx.c **** //LCD_RegValue:要写入的值
 138:HARDWARE/LCD/ILI93xx.c **** void LCD_WriteReg(u16 LCD_Reg,u16 LCD_RegValue)
ARM GAS  C:\Users\czsta\AppData\Local\Temp\ccqYu3W2.s 			page 8


 139:HARDWARE/LCD/ILI93xx.c **** {	
 237              		.loc 1 139 0
 238              		.cfi_startproc
 239              		@ args = 0, pretend = 0, frame = 0
 240              		@ frame_needed = 0, uses_anonymous_args = 0
 241              		@ link register save eliminated.
 242              	.LVL4:
 243 0000 70B4     		push	{r4, r5, r6}
 244              	.LCFI5:
 245              		.cfi_def_cfa_offset 12
 246              		.cfi_offset 4, -12
 247              		.cfi_offset 5, -8
 248              		.cfi_offset 6, -4
 249              	.LBB2308:
 250              	.LBB2309:
  94:HARDWARE/LCD/ILI93xx.c **** 	DATAOUT(data); 
 251              		.loc 1 94 0
 252 0002 4FF40072 		mov	r2, #512
  96:HARDWARE/LCD/ILI93xx.c **** 	LCD_WR_SET; 
 253              		.loc 1 96 0
 254 0006 8024     		movs	r4, #128
  93:HARDWARE/LCD/ILI93xx.c ****  	LCD_CS_CLR; 
 255              		.loc 1 93 0
 256 0008 4FF48076 		mov	r6, #256
 257 000c 074B     		ldr	r3, .L18
  95:HARDWARE/LCD/ILI93xx.c **** 	LCD_WR_CLR; 
 258              		.loc 1 95 0
 259 000e 084D     		ldr	r5, .L18+4
  93:HARDWARE/LCD/ILI93xx.c ****  	LCD_CS_CLR; 
 260              		.loc 1 93 0
 261 0010 5E61     		str	r6, [r3, #20]
  94:HARDWARE/LCD/ILI93xx.c **** 	DATAOUT(data); 
 262              		.loc 1 94 0
 263 0012 5A61     		str	r2, [r3, #20]
  95:HARDWARE/LCD/ILI93xx.c **** 	LCD_WR_CLR; 
 264              		.loc 1 95 0
 265 0014 E860     		str	r0, [r5, #12]
  96:HARDWARE/LCD/ILI93xx.c **** 	LCD_WR_SET; 
 266              		.loc 1 96 0
 267 0016 5C61     		str	r4, [r3, #20]
  97:HARDWARE/LCD/ILI93xx.c ****  	LCD_CS_SET;   
 268              		.loc 1 97 0
 269 0018 1C61     		str	r4, [r3, #16]
  98:HARDWARE/LCD/ILI93xx.c **** }
 270              		.loc 1 98 0
 271 001a 1A61     		str	r2, [r3, #16]
 272              	.LVL5:
 273              	.LBE2309:
 274              	.LBE2308:
 140:HARDWARE/LCD/ILI93xx.c **** 	LCD_WR_REG(LCD_Reg);  
 141:HARDWARE/LCD/ILI93xx.c **** 	LCD_WR_DATA(LCD_RegValue);	    		 
 275              		.loc 1 141 0
 276 001c 1E61     		str	r6, [r3, #16]
 277 001e 5A61     		str	r2, [r3, #20]
 278 0020 E960     		str	r1, [r5, #12]
 279 0022 5C61     		str	r4, [r3, #20]
 280 0024 1C61     		str	r4, [r3, #16]
ARM GAS  C:\Users\czsta\AppData\Local\Temp\ccqYu3W2.s 			page 9


 281 0026 1A61     		str	r2, [r3, #16]
 142:HARDWARE/LCD/ILI93xx.c **** }   
 282              		.loc 1 142 0
 283 0028 70BC     		pop	{r4, r5, r6}
 284              	.LCFI6:
 285              		.cfi_restore 6
 286              		.cfi_restore 5
 287              		.cfi_restore 4
 288              		.cfi_def_cfa_offset 0
 289 002a 7047     		bx	lr
 290              	.L19:
 291              		.align	2
 292              	.L18:
 293 002c 00100140 		.word	1073811456
 294 0030 000C0140 		.word	1073810432
 295              		.cfi_endproc
 296              	.LFE35:
 298              		.section	.text.LCD_ReadReg,"ax",%progbits
 299              		.align	1
 300              		.p2align 2,,3
 301              		.global	LCD_ReadReg
 302              		.syntax unified
 303              		.thumb
 304              		.thumb_func
 305              		.fpu softvfp
 307              	LCD_ReadReg:
 308              	.LFB36:
 143:HARDWARE/LCD/ILI93xx.c **** //读寄存器
 144:HARDWARE/LCD/ILI93xx.c **** //LCD_Reg:寄存器编号
 145:HARDWARE/LCD/ILI93xx.c **** //返回值:读到的值
 146:HARDWARE/LCD/ILI93xx.c **** u16 LCD_ReadReg(u16 LCD_Reg)
 147:HARDWARE/LCD/ILI93xx.c **** {										   
 309              		.loc 1 147 0
 310              		.cfi_startproc
 311              		@ args = 0, pretend = 0, frame = 0
 312              		@ frame_needed = 0, uses_anonymous_args = 0
 313              	.LVL6:
 314 0000 F8B5     		push	{r3, r4, r5, r6, r7, lr}
 315              	.LCFI7:
 316              		.cfi_def_cfa_offset 24
 317              		.cfi_offset 3, -24
 318              		.cfi_offset 4, -20
 319              		.cfi_offset 5, -16
 320              		.cfi_offset 6, -12
 321              		.cfi_offset 7, -8
 322              		.cfi_offset 14, -4
 323              	.LBB2316:
 324              	.LBB2317:
  94:HARDWARE/LCD/ILI93xx.c **** 	DATAOUT(data); 
 325              		.loc 1 94 0
 326 0002 4FF40071 		mov	r1, #512
  93:HARDWARE/LCD/ILI93xx.c ****  	LCD_CS_CLR; 
 327              		.loc 1 93 0
 328 0006 4FF48074 		mov	r4, #256
 329              	.LBE2317:
 330              	.LBE2316:
 331              	.LBB2323:
ARM GAS  C:\Users\czsta\AppData\Local\Temp\ccqYu3W2.s 			page 10


 332              	.LBB2324:
 125:HARDWARE/LCD/ILI93xx.c **** 	t=DATAIN;  
 333              		.loc 1 125 0
 334 000a 48F68917 		movw	r7, #35209
 335              	.LBE2324:
 336              	.LBE2323:
 337              	.LBB2332:
 338              	.LBB2318:
  96:HARDWARE/LCD/ILI93xx.c **** 	LCD_WR_SET; 
 339              		.loc 1 96 0
 340 000e 8026     		movs	r6, #128
 341              	.LBE2318:
 342              	.LBE2332:
 343              	.LBB2333:
 344              	.LBB2325:
 117:HARDWARE/LCD/ILI93xx.c **** 	GPIOB->CRH=0X88888888; //PB8-15 上拉输入
 345              		.loc 1 117 0
 346 0010 4FF08835 		mov	r5, #-2004318072
 119:HARDWARE/LCD/ILI93xx.c **** 
 347              		.loc 1 119 0
 348 0014 4FF0000E 		mov	lr, #0
 124:HARDWARE/LCD/ILI93xx.c **** 	if(lcddev.id==0X8989)delay_us(2);//FOR 8989,延时2us					   
 349              		.loc 1 124 0
 350 0018 4FF0400C 		mov	ip, #64
 351              	.LBE2325:
 352              	.LBE2333:
 353              	.LBB2334:
 354              	.LBB2319:
  93:HARDWARE/LCD/ILI93xx.c ****  	LCD_CS_CLR; 
 355              		.loc 1 93 0
 356 001c 144B     		ldr	r3, .L24
  95:HARDWARE/LCD/ILI93xx.c **** 	LCD_WR_CLR; 
 357              		.loc 1 95 0
 358 001e 154A     		ldr	r2, .L24+4
  93:HARDWARE/LCD/ILI93xx.c ****  	LCD_CS_CLR; 
 359              		.loc 1 93 0
 360 0020 5C61     		str	r4, [r3, #20]
  94:HARDWARE/LCD/ILI93xx.c **** 	DATAOUT(data); 
 361              		.loc 1 94 0
 362 0022 5961     		str	r1, [r3, #20]
  95:HARDWARE/LCD/ILI93xx.c **** 	LCD_WR_CLR; 
 363              		.loc 1 95 0
 364 0024 D060     		str	r0, [r2, #12]
 365              	.LBE2319:
 366              	.LBE2334:
 367              	.LBB2335:
 368              	.LBB2326:
 125:HARDWARE/LCD/ILI93xx.c **** 	t=DATAIN;  
 369              		.loc 1 125 0
 370 0026 1448     		ldr	r0, .L24+8
 371              	.LVL7:
 372              	.LBE2326:
 373              	.LBE2335:
 374              	.LBB2336:
 375              	.LBB2320:
  96:HARDWARE/LCD/ILI93xx.c **** 	LCD_WR_SET; 
 376              		.loc 1 96 0
ARM GAS  C:\Users\czsta\AppData\Local\Temp\ccqYu3W2.s 			page 11


 377 0028 5E61     		str	r6, [r3, #20]
 378              	.LBE2320:
 379              	.LBE2336:
 380              	.LBB2337:
 381              	.LBB2327:
 125:HARDWARE/LCD/ILI93xx.c **** 	t=DATAIN;  
 382              		.loc 1 125 0
 383 002a 8088     		ldrh	r0, [r0, #4]
 384              	.LBE2327:
 385              	.LBE2337:
 386              	.LBB2338:
 387              	.LBB2321:
  97:HARDWARE/LCD/ILI93xx.c ****  	LCD_CS_SET;   
 388              		.loc 1 97 0
 389 002c 1E61     		str	r6, [r3, #16]
 390              	.LBE2321:
 391              	.LBE2338:
 392              	.LBB2339:
 393              	.LBB2328:
 125:HARDWARE/LCD/ILI93xx.c **** 	t=DATAIN;  
 394              		.loc 1 125 0
 395 002e B842     		cmp	r0, r7
 396              	.LBE2328:
 397              	.LBE2339:
 398              	.LBB2340:
 399              	.LBB2322:
  98:HARDWARE/LCD/ILI93xx.c **** }
 400              		.loc 1 98 0
 401 0030 1961     		str	r1, [r3, #16]
 402              	.LVL8:
 403              	.LBE2322:
 404              	.LBE2340:
 405              	.LBB2341:
 406              	.LBB2329:
 117:HARDWARE/LCD/ILI93xx.c **** 	GPIOB->CRH=0X88888888; //PB8-15 上拉输入
 407              		.loc 1 117 0
 408 0032 1560     		str	r5, [r2]
 118:HARDWARE/LCD/ILI93xx.c **** 	GPIOB->ODR=0X0000;     //全部输出0
 409              		.loc 1 118 0
 410 0034 5560     		str	r5, [r2, #4]
 119:HARDWARE/LCD/ILI93xx.c **** 
 411              		.loc 1 119 0
 412 0036 C2F80CE0 		str	lr, [r2, #12]
 121:HARDWARE/LCD/ILI93xx.c **** 	LCD_CS_CLR;
 413              		.loc 1 121 0
 414 003a 1C61     		str	r4, [r3, #16]
 122:HARDWARE/LCD/ILI93xx.c **** 	//读取数据(读寄存器时,并不需要读2次)
 415              		.loc 1 122 0
 416 003c 5961     		str	r1, [r3, #20]
 124:HARDWARE/LCD/ILI93xx.c **** 	if(lcddev.id==0X8989)delay_us(2);//FOR 8989,延时2us					   
 417              		.loc 1 124 0
 418 003e C3F814C0 		str	ip, [r3, #20]
 125:HARDWARE/LCD/ILI93xx.c **** 	t=DATAIN;  
 419              		.loc 1 125 0
 420 0042 10D0     		beq	.L23
 421              	.L21:
 130:HARDWARE/LCD/ILI93xx.c **** 	GPIOB->CRH=0X33333333; //PB8-15 上拉输出
ARM GAS  C:\Users\czsta\AppData\Local\Temp\ccqYu3W2.s 			page 12


 422              		.loc 1 130 0
 423 0044 4FF03332 		mov	r2, #858993459
 127:HARDWARE/LCD/ILI93xx.c **** 	LCD_CS_SET; 
 424              		.loc 1 127 0
 425 0048 4026     		movs	r6, #64
 128:HARDWARE/LCD/ILI93xx.c **** 
 426              		.loc 1 128 0
 427 004a 4FF40075 		mov	r5, #512
 132:HARDWARE/LCD/ILI93xx.c **** 	return t;  
 428              		.loc 1 132 0
 429 004e 4FF6FF74 		movw	r4, #65535
 126:HARDWARE/LCD/ILI93xx.c **** 	LCD_RD_SET;
 430              		.loc 1 126 0
 431 0052 084B     		ldr	r3, .L24+4
 127:HARDWARE/LCD/ILI93xx.c **** 	LCD_CS_SET; 
 432              		.loc 1 127 0
 433 0054 0649     		ldr	r1, .L24
 126:HARDWARE/LCD/ILI93xx.c **** 	LCD_RD_SET;
 434              		.loc 1 126 0
 435 0056 9868     		ldr	r0, [r3, #8]
 436              	.LVL9:
 127:HARDWARE/LCD/ILI93xx.c **** 	LCD_CS_SET; 
 437              		.loc 1 127 0
 438 0058 0E61     		str	r6, [r1, #16]
 439              	.LBE2329:
 440              	.LBE2341:
 148:HARDWARE/LCD/ILI93xx.c ****  	LCD_WR_REG(LCD_Reg);  //写入要读的寄存器号  
 149:HARDWARE/LCD/ILI93xx.c **** 	return LCD_RD_DATA(); 
 150:HARDWARE/LCD/ILI93xx.c **** } 
 441              		.loc 1 150 0
 442 005a 80B2     		uxth	r0, r0
 443              	.LBB2342:
 444              	.LBB2330:
 128:HARDWARE/LCD/ILI93xx.c **** 
 445              		.loc 1 128 0
 446 005c 0D61     		str	r5, [r1, #16]
 130:HARDWARE/LCD/ILI93xx.c **** 	GPIOB->CRH=0X33333333; //PB8-15 上拉输出
 447              		.loc 1 130 0
 448 005e 1A60     		str	r2, [r3]
 131:HARDWARE/LCD/ILI93xx.c **** 	GPIOB->ODR=0XFFFF;    //全部输出高
 449              		.loc 1 131 0
 450 0060 5A60     		str	r2, [r3, #4]
 132:HARDWARE/LCD/ILI93xx.c **** 	return t;  
 451              		.loc 1 132 0
 452 0062 DC60     		str	r4, [r3, #12]
 453              	.LVL10:
 454              	.LBE2330:
 455              	.LBE2342:
 456              		.loc 1 150 0
 457 0064 F8BD     		pop	{r3, r4, r5, r6, r7, pc}
 458              	.L23:
 459              	.LBB2343:
 460              	.LBB2331:
 125:HARDWARE/LCD/ILI93xx.c **** 	t=DATAIN;  
 461              		.loc 1 125 0
 462 0066 0220     		movs	r0, #2
 463 0068 FFF7FEFF 		bl	delay_us
ARM GAS  C:\Users\czsta\AppData\Local\Temp\ccqYu3W2.s 			page 13


 464              	.LVL11:
 465 006c EAE7     		b	.L21
 466              	.L25:
 467 006e 00BF     		.align	2
 468              	.L24:
 469 0070 00100140 		.word	1073811456
 470 0074 000C0140 		.word	1073810432
 471 0078 00000000 		.word	lcddev
 472              	.LBE2331:
 473              	.LBE2343:
 474              		.cfi_endproc
 475              	.LFE36:
 477              		.section	.text.LCD_WriteRAM_Prepare,"ax",%progbits
 478              		.align	1
 479              		.p2align 2,,3
 480              		.global	LCD_WriteRAM_Prepare
 481              		.syntax unified
 482              		.thumb
 483              		.thumb_func
 484              		.fpu softvfp
 486              	LCD_WriteRAM_Prepare:
 487              	.LFB37:
 151:HARDWARE/LCD/ILI93xx.c **** //开始写GRAM
 152:HARDWARE/LCD/ILI93xx.c **** void LCD_WriteRAM_Prepare(void)
 153:HARDWARE/LCD/ILI93xx.c **** {
 488              		.loc 1 153 0
 489              		.cfi_startproc
 490              		@ args = 0, pretend = 0, frame = 0
 491              		@ frame_needed = 0, uses_anonymous_args = 0
 492              		@ link register save eliminated.
 493 0000 30B4     		push	{r4, r5}
 494              	.LCFI8:
 495              		.cfi_def_cfa_offset 8
 496              		.cfi_offset 4, -8
 497              		.cfi_offset 5, -4
 498              	.LBB2344:
 499              	.LBB2345:
  94:HARDWARE/LCD/ILI93xx.c **** 	DATAOUT(data); 
 500              		.loc 1 94 0
 501 0002 4FF40072 		mov	r2, #512
  93:HARDWARE/LCD/ILI93xx.c ****  	LCD_CS_CLR; 
 502              		.loc 1 93 0
 503 0006 4FF48075 		mov	r5, #256
  96:HARDWARE/LCD/ILI93xx.c **** 	LCD_WR_SET; 
 504              		.loc 1 96 0
 505 000a 8021     		movs	r1, #128
 506              	.LBE2345:
 507              	.LBE2344:
 154:HARDWARE/LCD/ILI93xx.c **** 	LCD_WR_REG(lcddev.wramcmd);
 508              		.loc 1 154 0
 509 000c 0548     		ldr	r0, .L28
 510              	.LBB2349:
 511              	.LBB2346:
  93:HARDWARE/LCD/ILI93xx.c ****  	LCD_CS_CLR; 
 512              		.loc 1 93 0
 513 000e 064B     		ldr	r3, .L28+4
 514              	.LBE2346:
ARM GAS  C:\Users\czsta\AppData\Local\Temp\ccqYu3W2.s 			page 14


 515              	.LBE2349:
 516              		.loc 1 154 0
 517 0010 0489     		ldrh	r4, [r0, #8]
 518              	.LVL12:
 519              	.LBB2350:
 520              	.LBB2347:
  95:HARDWARE/LCD/ILI93xx.c **** 	LCD_WR_CLR; 
 521              		.loc 1 95 0
 522 0012 0648     		ldr	r0, .L28+8
  93:HARDWARE/LCD/ILI93xx.c ****  	LCD_CS_CLR; 
 523              		.loc 1 93 0
 524 0014 5D61     		str	r5, [r3, #20]
  94:HARDWARE/LCD/ILI93xx.c **** 	DATAOUT(data); 
 525              		.loc 1 94 0
 526 0016 5A61     		str	r2, [r3, #20]
  95:HARDWARE/LCD/ILI93xx.c **** 	LCD_WR_CLR; 
 527              		.loc 1 95 0
 528 0018 C460     		str	r4, [r0, #12]
  96:HARDWARE/LCD/ILI93xx.c **** 	LCD_WR_SET; 
 529              		.loc 1 96 0
 530 001a 5961     		str	r1, [r3, #20]
 531              	.LBE2347:
 532              	.LBE2350:
 155:HARDWARE/LCD/ILI93xx.c **** } 
 533              		.loc 1 155 0
 534 001c 30BC     		pop	{r4, r5}
 535              	.LCFI9:
 536              		.cfi_restore 5
 537              		.cfi_restore 4
 538              		.cfi_def_cfa_offset 0
 539              	.LVL13:
 540              	.LBB2351:
 541              	.LBB2348:
  97:HARDWARE/LCD/ILI93xx.c ****  	LCD_CS_SET;   
 542              		.loc 1 97 0
 543 001e 1961     		str	r1, [r3, #16]
  98:HARDWARE/LCD/ILI93xx.c **** }
 544              		.loc 1 98 0
 545 0020 1A61     		str	r2, [r3, #16]
 546              	.LVL14:
 547              	.LBE2348:
 548              	.LBE2351:
 549              		.loc 1 155 0
 550 0022 7047     		bx	lr
 551              	.L29:
 552              		.align	2
 553              	.L28:
 554 0024 00000000 		.word	lcddev
 555 0028 00100140 		.word	1073811456
 556 002c 000C0140 		.word	1073810432
 557              		.cfi_endproc
 558              	.LFE37:
 560              		.section	.text.LCD_WriteRAM,"ax",%progbits
 561              		.align	1
 562              		.p2align 2,,3
 563              		.global	LCD_WriteRAM
 564              		.syntax unified
ARM GAS  C:\Users\czsta\AppData\Local\Temp\ccqYu3W2.s 			page 15


 565              		.thumb
 566              		.thumb_func
 567              		.fpu softvfp
 569              	LCD_WriteRAM:
 570              	.LFB38:
 156:HARDWARE/LCD/ILI93xx.c **** //LCD写GRAM
 157:HARDWARE/LCD/ILI93xx.c **** //RGB_Code:颜色值
 158:HARDWARE/LCD/ILI93xx.c **** void LCD_WriteRAM(u16 RGB_Code)
 159:HARDWARE/LCD/ILI93xx.c **** {							    
 571              		.loc 1 159 0
 572              		.cfi_startproc
 573              		@ args = 0, pretend = 0, frame = 0
 574              		@ frame_needed = 0, uses_anonymous_args = 0
 575              		@ link register save eliminated.
 576              	.LVL15:
 577 0000 30B4     		push	{r4, r5}
 578              	.LCFI10:
 579              		.cfi_def_cfa_offset 8
 580              		.cfi_offset 4, -8
 581              		.cfi_offset 5, -4
 160:HARDWARE/LCD/ILI93xx.c **** 	LCD_WR_DATA(RGB_Code);//写十六位GRAM
 582              		.loc 1 160 0
 583 0002 4FF40072 		mov	r2, #512
 584 0006 4FF48075 		mov	r5, #256
 585 000a 8021     		movs	r1, #128
 586 000c 044B     		ldr	r3, .L32
 587 000e 054C     		ldr	r4, .L32+4
 588 0010 1D61     		str	r5, [r3, #16]
 589 0012 5A61     		str	r2, [r3, #20]
 590 0014 E060     		str	r0, [r4, #12]
 591 0016 5961     		str	r1, [r3, #20]
 161:HARDWARE/LCD/ILI93xx.c **** }
 592              		.loc 1 161 0
 593 0018 30BC     		pop	{r4, r5}
 594              	.LCFI11:
 595              		.cfi_restore 5
 596              		.cfi_restore 4
 597              		.cfi_def_cfa_offset 0
 160:HARDWARE/LCD/ILI93xx.c **** 	LCD_WR_DATA(RGB_Code);//写十六位GRAM
 598              		.loc 1 160 0
 599 001a 1961     		str	r1, [r3, #16]
 600 001c 1A61     		str	r2, [r3, #16]
 601              		.loc 1 161 0
 602 001e 7047     		bx	lr
 603              	.L33:
 604              		.align	2
 605              	.L32:
 606 0020 00100140 		.word	1073811456
 607 0024 000C0140 		.word	1073810432
 608              		.cfi_endproc
 609              	.LFE38:
 611              		.section	.text.LCD_BGR2RGB,"ax",%progbits
 612              		.align	1
 613              		.p2align 2,,3
 614              		.global	LCD_BGR2RGB
 615              		.syntax unified
 616              		.thumb
ARM GAS  C:\Users\czsta\AppData\Local\Temp\ccqYu3W2.s 			page 16


 617              		.thumb_func
 618              		.fpu softvfp
 620              	LCD_BGR2RGB:
 621              	.LFB39:
 162:HARDWARE/LCD/ILI93xx.c **** //从ILI93xx读出的数据为GBR格式，而我们写入的时候为RGB格式。
 163:HARDWARE/LCD/ILI93xx.c **** //通过该函数转换
 164:HARDWARE/LCD/ILI93xx.c **** //c:GBR格式的颜色值
 165:HARDWARE/LCD/ILI93xx.c **** //返回值：RGB格式的颜色值
 166:HARDWARE/LCD/ILI93xx.c **** u16 LCD_BGR2RGB(u16 c)
 167:HARDWARE/LCD/ILI93xx.c **** {
 622              		.loc 1 167 0
 623              		.cfi_startproc
 624              		@ args = 0, pretend = 0, frame = 0
 625              		@ frame_needed = 0, uses_anonymous_args = 0
 626              		@ link register save eliminated.
 627              	.LVL16:
 168:HARDWARE/LCD/ILI93xx.c **** 	u16  r,g,b,rgb;   
 169:HARDWARE/LCD/ILI93xx.c **** 	b=(c>>0)&0x1f;
 170:HARDWARE/LCD/ILI93xx.c **** 	g=(c>>5)&0x3f;
 171:HARDWARE/LCD/ILI93xx.c **** 	r=(c>>11)&0x1f;	 
 172:HARDWARE/LCD/ILI93xx.c **** 	rgb=(b<<11)+(g<<5)+(r<<0);		 
 628              		.loc 1 172 0
 629 0000 C302     		lsls	r3, r0, #11
 630 0002 03EBD023 		add	r3, r3, r0, lsr #11
 631 0006 00F4FC60 		and	r0, r0, #2016
 632              	.LVL17:
 633 000a 1844     		add	r0, r0, r3
 173:HARDWARE/LCD/ILI93xx.c **** 	return(rgb);
 174:HARDWARE/LCD/ILI93xx.c **** }	
 634              		.loc 1 174 0
 635 000c 80B2     		uxth	r0, r0
 636 000e 7047     		bx	lr
 637              		.cfi_endproc
 638              	.LFE39:
 640              		.section	.text.opt_delay,"ax",%progbits
 641              		.align	1
 642              		.p2align 2,,3
 643              		.global	opt_delay
 644              		.syntax unified
 645              		.thumb
 646              		.thumb_func
 647              		.fpu softvfp
 649              	opt_delay:
 650              	.LFB40:
 175:HARDWARE/LCD/ILI93xx.c **** //当mdk -O1时间优化时需要设置
 176:HARDWARE/LCD/ILI93xx.c **** //延时i
 177:HARDWARE/LCD/ILI93xx.c **** void opt_delay(u8 i)
 178:HARDWARE/LCD/ILI93xx.c **** {
 651              		.loc 1 178 0
 652              		.cfi_startproc
 653              		@ args = 0, pretend = 0, frame = 0
 654              		@ frame_needed = 0, uses_anonymous_args = 0
 655              		@ link register save eliminated.
 656              	.LVL18:
 179:HARDWARE/LCD/ILI93xx.c **** 	while(i--);
 180:HARDWARE/LCD/ILI93xx.c **** }
 657              		.loc 1 180 0
ARM GAS  C:\Users\czsta\AppData\Local\Temp\ccqYu3W2.s 			page 17


 658 0000 7047     		bx	lr
 659              		.cfi_endproc
 660              	.LFE40:
 662 0002 00BF     		.section	.text.LCD_DisplayOn,"ax",%progbits
 663              		.align	1
 664              		.p2align 2,,3
 665              		.global	LCD_DisplayOn
 666              		.syntax unified
 667              		.thumb
 668              		.thumb_func
 669              		.fpu softvfp
 671              	LCD_DisplayOn:
 672              	.LFB42:
 181:HARDWARE/LCD/ILI93xx.c **** //读取个某点的颜色值	 
 182:HARDWARE/LCD/ILI93xx.c **** //x,y:坐标
 183:HARDWARE/LCD/ILI93xx.c **** //返回值:此点的颜色
 184:HARDWARE/LCD/ILI93xx.c **** u16 LCD_ReadPoint(u16 x,u16 y)
 185:HARDWARE/LCD/ILI93xx.c **** {
 186:HARDWARE/LCD/ILI93xx.c ****  	u16 r=0,g=0,b=0;
 187:HARDWARE/LCD/ILI93xx.c **** 	if(x>=lcddev.width||y>=lcddev.height)return 0;	//超过了范围,直接返回		   
 188:HARDWARE/LCD/ILI93xx.c **** 	LCD_SetCursor(x,y);
 189:HARDWARE/LCD/ILI93xx.c **** 	if(lcddev.id==0X9341||lcddev.id==0X6804||lcddev.id==0X5310||lcddev.id==0X1963)LCD_WR_REG(0X2E);//9
 190:HARDWARE/LCD/ILI93xx.c **** 	else if(lcddev.id==0X5510)LCD_WR_REG(0X2E00);	//5510 发送读GRAM指令
 191:HARDWARE/LCD/ILI93xx.c **** 	else LCD_WR_REG(0X22);      		 			//其他IC发送读GRAM指令
 192:HARDWARE/LCD/ILI93xx.c **** 	GPIOB->CRL=0X88888888; 							//PB0-7  上拉输入
 193:HARDWARE/LCD/ILI93xx.c **** 	GPIOB->CRH=0X88888888; 							//PB8-15 上拉输入
 194:HARDWARE/LCD/ILI93xx.c **** 	GPIOB->ODR=0XFFFF;     							//全部输出高
 195:HARDWARE/LCD/ILI93xx.c **** 
 196:HARDWARE/LCD/ILI93xx.c **** 	LCD_RS_SET;
 197:HARDWARE/LCD/ILI93xx.c **** 	LCD_CS_CLR;	    
 198:HARDWARE/LCD/ILI93xx.c **** 	//读取数据(读GRAM时,第一次为假读)	
 199:HARDWARE/LCD/ILI93xx.c **** 	LCD_RD_CLR;		   
 200:HARDWARE/LCD/ILI93xx.c **** 	opt_delay(2);									//延时		
 201:HARDWARE/LCD/ILI93xx.c ****  	r=DATAIN;  										//实际坐标颜色 
 202:HARDWARE/LCD/ILI93xx.c **** 	LCD_RD_SET;
 203:HARDWARE/LCD/ILI93xx.c **** 	if(lcddev.id==0X1963)
 204:HARDWARE/LCD/ILI93xx.c **** 	{
 205:HARDWARE/LCD/ILI93xx.c **** 		LCD_CS_SET;
 206:HARDWARE/LCD/ILI93xx.c **** 		GPIOB->CRL=0X33333333; 		//PB0-7  上拉输出
 207:HARDWARE/LCD/ILI93xx.c **** 		GPIOB->CRH=0X33333333; 		//PB8-15 上拉输出
 208:HARDWARE/LCD/ILI93xx.c **** 		GPIOB->ODR=0XFFFF;    		//全部输出高  
 209:HARDWARE/LCD/ILI93xx.c **** 		return r;					//1963直接读就可以 
 210:HARDWARE/LCD/ILI93xx.c ****  	}
 211:HARDWARE/LCD/ILI93xx.c ****  	//dummy READ
 212:HARDWARE/LCD/ILI93xx.c **** 	LCD_RD_CLR;					   
 213:HARDWARE/LCD/ILI93xx.c **** 	opt_delay(2);//延时					   
 214:HARDWARE/LCD/ILI93xx.c ****  	r=DATAIN;  	//实际坐标颜色
 215:HARDWARE/LCD/ILI93xx.c **** 	LCD_RD_SET;
 216:HARDWARE/LCD/ILI93xx.c ****  	if(lcddev.id==0X9341||lcddev.id==0X5310||lcddev.id==0X5510)	//9341/NT35310/NT35510要分2次读
 217:HARDWARE/LCD/ILI93xx.c **** 	{	 
 218:HARDWARE/LCD/ILI93xx.c **** 		LCD_RD_CLR;					   
 219:HARDWARE/LCD/ILI93xx.c **** 		opt_delay(2);//延时			   
 220:HARDWARE/LCD/ILI93xx.c **** 		b=DATAIN;//读取蓝色值  	  
 221:HARDWARE/LCD/ILI93xx.c **** 	 	LCD_RD_SET;
 222:HARDWARE/LCD/ILI93xx.c **** 		g=r&0XFF;//对于9341,第一次读取的是RG的值,R在前,G在后,各占8位
 223:HARDWARE/LCD/ILI93xx.c **** 		g<<=8;
 224:HARDWARE/LCD/ILI93xx.c **** 	}else if(lcddev.id==0X6804)
ARM GAS  C:\Users\czsta\AppData\Local\Temp\ccqYu3W2.s 			page 18


 225:HARDWARE/LCD/ILI93xx.c **** 	{
 226:HARDWARE/LCD/ILI93xx.c **** 		LCD_RD_CLR;					   
 227:HARDWARE/LCD/ILI93xx.c **** 	 	LCD_RD_SET;
 228:HARDWARE/LCD/ILI93xx.c **** 		r=DATAIN;//6804第二次读取的才是真实值 
 229:HARDWARE/LCD/ILI93xx.c **** 	}	 
 230:HARDWARE/LCD/ILI93xx.c **** 	LCD_CS_SET;
 231:HARDWARE/LCD/ILI93xx.c **** 	GPIOB->CRL=0X33333333; 		//PB0-7  上拉输出
 232:HARDWARE/LCD/ILI93xx.c **** 	GPIOB->CRH=0X33333333; 		//PB8-15 上拉输出
 233:HARDWARE/LCD/ILI93xx.c **** 	GPIOB->ODR=0XFFFF;    		//全部输出高  
 234:HARDWARE/LCD/ILI93xx.c **** 	if(lcddev.id==0X9325||lcddev.id==0X4535||lcddev.id==0X4531||lcddev.id==0X8989||lcddev.id==0XB505)r
 235:HARDWARE/LCD/ILI93xx.c **** 	else if(lcddev.id==0X9341||lcddev.id==0X5310||lcddev.id==0X5510)return (((r>>11)<<11)|((g>>10)<<5)
 236:HARDWARE/LCD/ILI93xx.c **** 	else return LCD_BGR2RGB(r);	//其他IC
 237:HARDWARE/LCD/ILI93xx.c **** }		 
 238:HARDWARE/LCD/ILI93xx.c **** //LCD开启显示
 239:HARDWARE/LCD/ILI93xx.c **** void LCD_DisplayOn(void)
 240:HARDWARE/LCD/ILI93xx.c **** {					   
 673              		.loc 1 240 0
 674              		.cfi_startproc
 675              		@ args = 0, pretend = 0, frame = 0
 676              		@ frame_needed = 0, uses_anonymous_args = 0
 677              		@ link register save eliminated.
 241:HARDWARE/LCD/ILI93xx.c **** 	if(lcddev.id==0X9341||lcddev.id==0X6804||lcddev.id==0X5310||lcddev.id==0X1963)LCD_WR_REG(0X29);	//
 678              		.loc 1 241 0
 679 0000 49F24132 		movw	r2, #37697
 680 0004 214B     		ldr	r3, .L44
 240:HARDWARE/LCD/ILI93xx.c **** 	if(lcddev.id==0X9341||lcddev.id==0X6804||lcddev.id==0X5310||lcddev.id==0X1963)LCD_WR_REG(0X29);	//
 681              		.loc 1 240 0
 682 0006 70B4     		push	{r4, r5, r6}
 683              	.LCFI12:
 684              		.cfi_def_cfa_offset 12
 685              		.cfi_offset 4, -12
 686              		.cfi_offset 5, -8
 687              		.cfi_offset 6, -4
 688              		.loc 1 241 0
 689 0008 9B88     		ldrh	r3, [r3, #4]
 690 000a 9342     		cmp	r3, r2
 691 000c 27D0     		beq	.L37
 692              		.loc 1 241 0 is_stmt 0 discriminator 2
 693 000e 46F60402 		movw	r2, #26628
 694 0012 9342     		cmp	r3, r2
 695 0014 23D0     		beq	.L37
 696              		.loc 1 241 0 discriminator 4
 697 0016 45F21032 		movw	r2, #21264
 698 001a 9342     		cmp	r3, r2
 699 001c 1FD0     		beq	.L37
 700              		.loc 1 241 0 discriminator 6
 701 001e 41F66312 		movw	r2, #6499
 702 0022 9342     		cmp	r3, r2
 703 0024 1BD0     		beq	.L37
 242:HARDWARE/LCD/ILI93xx.c **** 	else if(lcddev.id==0X5510)LCD_WR_REG(0X2900);	//开启显示
 704              		.loc 1 242 0 is_stmt 1
 705 0026 45F21052 		movw	r2, #21776
 706 002a 9342     		cmp	r3, r2
 707 002c 27D0     		beq	.L43
 708              	.LVL19:
 709              	.LBB2352:
 710              	.LBB2353:
ARM GAS  C:\Users\czsta\AppData\Local\Temp\ccqYu3W2.s 			page 19


 711              	.LBB2354:
 712              	.LBB2355:
  94:HARDWARE/LCD/ILI93xx.c **** 	DATAOUT(data); 
 713              		.loc 1 94 0
 714 002e 4FF40072 		mov	r2, #512
  96:HARDWARE/LCD/ILI93xx.c **** 	LCD_WR_SET; 
 715              		.loc 1 96 0
 716 0032 8021     		movs	r1, #128
  93:HARDWARE/LCD/ILI93xx.c ****  	LCD_CS_CLR; 
 717              		.loc 1 93 0
 718 0034 4FF48074 		mov	r4, #256
  95:HARDWARE/LCD/ILI93xx.c **** 	LCD_WR_CLR; 
 719              		.loc 1 95 0
 720 0038 0726     		movs	r6, #7
 721              	.LBE2355:
 722              	.LBE2354:
 141:HARDWARE/LCD/ILI93xx.c **** }   
 723              		.loc 1 141 0
 724 003a 40F27315 		movw	r5, #371
 725              	.LBB2357:
 726              	.LBB2356:
  93:HARDWARE/LCD/ILI93xx.c ****  	LCD_CS_CLR; 
 727              		.loc 1 93 0
 728 003e 144B     		ldr	r3, .L44+4
  95:HARDWARE/LCD/ILI93xx.c **** 	LCD_WR_CLR; 
 729              		.loc 1 95 0
 730 0040 1448     		ldr	r0, .L44+8
  93:HARDWARE/LCD/ILI93xx.c ****  	LCD_CS_CLR; 
 731              		.loc 1 93 0
 732 0042 5C61     		str	r4, [r3, #20]
  94:HARDWARE/LCD/ILI93xx.c **** 	DATAOUT(data); 
 733              		.loc 1 94 0
 734 0044 5A61     		str	r2, [r3, #20]
  95:HARDWARE/LCD/ILI93xx.c **** 	LCD_WR_CLR; 
 735              		.loc 1 95 0
 736 0046 C660     		str	r6, [r0, #12]
  96:HARDWARE/LCD/ILI93xx.c **** 	LCD_WR_SET; 
 737              		.loc 1 96 0
 738 0048 5961     		str	r1, [r3, #20]
  97:HARDWARE/LCD/ILI93xx.c ****  	LCD_CS_SET;   
 739              		.loc 1 97 0
 740 004a 1961     		str	r1, [r3, #16]
  98:HARDWARE/LCD/ILI93xx.c **** }
 741              		.loc 1 98 0
 742 004c 1A61     		str	r2, [r3, #16]
 743              	.LVL20:
 744              	.LBE2356:
 745              	.LBE2357:
 141:HARDWARE/LCD/ILI93xx.c **** }   
 746              		.loc 1 141 0
 747 004e 1C61     		str	r4, [r3, #16]
 748 0050 5A61     		str	r2, [r3, #20]
 749 0052 C560     		str	r5, [r0, #12]
 750 0054 5961     		str	r1, [r3, #20]
 751              	.LBE2353:
 752              	.LBE2352:
 243:HARDWARE/LCD/ILI93xx.c **** 	else LCD_WriteReg(0X07,0x0173); 				 	//开启显示
ARM GAS  C:\Users\czsta\AppData\Local\Temp\ccqYu3W2.s 			page 20


 244:HARDWARE/LCD/ILI93xx.c **** }	 
 753              		.loc 1 244 0
 754 0056 70BC     		pop	{r4, r5, r6}
 755              	.LCFI13:
 756              		.cfi_remember_state
 757              		.cfi_restore 6
 758              		.cfi_restore 5
 759              		.cfi_restore 4
 760              		.cfi_def_cfa_offset 0
 761              	.LBB2359:
 762              	.LBB2358:
 141:HARDWARE/LCD/ILI93xx.c **** }   
 763              		.loc 1 141 0
 764 0058 1961     		str	r1, [r3, #16]
 765 005a 1A61     		str	r2, [r3, #16]
 766              	.LBE2358:
 767              	.LBE2359:
 768              		.loc 1 244 0
 769 005c 7047     		bx	lr
 770              	.LVL21:
 771              	.L37:
 772              	.LCFI14:
 773              		.cfi_restore_state
 774              	.LBB2360:
 775              	.LBB2361:
  93:HARDWARE/LCD/ILI93xx.c ****  	LCD_CS_CLR; 
 776              		.loc 1 93 0
 777 005e 4FF48075 		mov	r5, #256
  94:HARDWARE/LCD/ILI93xx.c **** 	DATAOUT(data); 
 778              		.loc 1 94 0
 779 0062 4FF40072 		mov	r2, #512
  95:HARDWARE/LCD/ILI93xx.c **** 	LCD_WR_CLR; 
 780              		.loc 1 95 0
 781 0066 2924     		movs	r4, #41
 782              	.LVL22:
 783              	.L42:
 784              	.LBE2361:
 785              	.LBE2360:
 786              	.LBB2362:
 787              	.LBB2363:
  96:HARDWARE/LCD/ILI93xx.c **** 	LCD_WR_SET; 
 788              		.loc 1 96 0
 789 0068 8021     		movs	r1, #128
  93:HARDWARE/LCD/ILI93xx.c ****  	LCD_CS_CLR; 
 790              		.loc 1 93 0
 791 006a 094B     		ldr	r3, .L44+4
  95:HARDWARE/LCD/ILI93xx.c **** 	LCD_WR_CLR; 
 792              		.loc 1 95 0
 793 006c 0948     		ldr	r0, .L44+8
  93:HARDWARE/LCD/ILI93xx.c ****  	LCD_CS_CLR; 
 794              		.loc 1 93 0
 795 006e 5D61     		str	r5, [r3, #20]
  94:HARDWARE/LCD/ILI93xx.c **** 	DATAOUT(data); 
 796              		.loc 1 94 0
 797 0070 5A61     		str	r2, [r3, #20]
  95:HARDWARE/LCD/ILI93xx.c **** 	LCD_WR_CLR; 
 798              		.loc 1 95 0
ARM GAS  C:\Users\czsta\AppData\Local\Temp\ccqYu3W2.s 			page 21


 799 0072 C460     		str	r4, [r0, #12]
  96:HARDWARE/LCD/ILI93xx.c **** 	LCD_WR_SET; 
 800              		.loc 1 96 0
 801 0074 5961     		str	r1, [r3, #20]
 802              	.LBE2363:
 803              	.LBE2362:
 804              		.loc 1 244 0
 805 0076 70BC     		pop	{r4, r5, r6}
 806              	.LCFI15:
 807              		.cfi_remember_state
 808              		.cfi_restore 6
 809              		.cfi_restore 5
 810              		.cfi_restore 4
 811              		.cfi_def_cfa_offset 0
 812              	.LBB2366:
 813              	.LBB2364:
  97:HARDWARE/LCD/ILI93xx.c ****  	LCD_CS_SET;   
 814              		.loc 1 97 0
 815 0078 1961     		str	r1, [r3, #16]
  98:HARDWARE/LCD/ILI93xx.c **** }
 816              		.loc 1 98 0
 817 007a 1A61     		str	r2, [r3, #16]
 818              	.LBE2364:
 819              	.LBE2366:
 820              		.loc 1 244 0
 821 007c 7047     		bx	lr
 822              	.L43:
 823              	.LCFI16:
 824              		.cfi_restore_state
 825              	.LVL23:
 826              	.LBB2367:
 827              	.LBB2365:
  93:HARDWARE/LCD/ILI93xx.c ****  	LCD_CS_CLR; 
 828              		.loc 1 93 0
 829 007e 4FF48075 		mov	r5, #256
  94:HARDWARE/LCD/ILI93xx.c **** 	DATAOUT(data); 
 830              		.loc 1 94 0
 831 0082 4FF40072 		mov	r2, #512
  95:HARDWARE/LCD/ILI93xx.c **** 	LCD_WR_CLR; 
 832              		.loc 1 95 0
 833 0086 4FF42454 		mov	r4, #10496
 834 008a EDE7     		b	.L42
 835              	.L45:
 836              		.align	2
 837              	.L44:
 838 008c 00000000 		.word	lcddev
 839 0090 00100140 		.word	1073811456
 840 0094 000C0140 		.word	1073810432
 841              	.LBE2365:
 842              	.LBE2367:
 843              		.cfi_endproc
 844              	.LFE42:
 846              		.section	.text.LCD_DisplayOff,"ax",%progbits
 847              		.align	1
 848              		.p2align 2,,3
 849              		.global	LCD_DisplayOff
 850              		.syntax unified
ARM GAS  C:\Users\czsta\AppData\Local\Temp\ccqYu3W2.s 			page 22


 851              		.thumb
 852              		.thumb_func
 853              		.fpu softvfp
 855              	LCD_DisplayOff:
 856              	.LFB43:
 245:HARDWARE/LCD/ILI93xx.c **** //LCD关闭显示
 246:HARDWARE/LCD/ILI93xx.c **** void LCD_DisplayOff(void)
 247:HARDWARE/LCD/ILI93xx.c **** {	   
 857              		.loc 1 247 0
 858              		.cfi_startproc
 859              		@ args = 0, pretend = 0, frame = 0
 860              		@ frame_needed = 0, uses_anonymous_args = 0
 861              		@ link register save eliminated.
 248:HARDWARE/LCD/ILI93xx.c **** 	if(lcddev.id==0X9341||lcddev.id==0X6804||lcddev.id==0X5310||lcddev.id==0X1963)LCD_WR_REG(0X28);	//
 862              		.loc 1 248 0
 863 0000 49F24132 		movw	r2, #37697
 864 0004 214B     		ldr	r3, .L54
 247:HARDWARE/LCD/ILI93xx.c **** 	if(lcddev.id==0X9341||lcddev.id==0X6804||lcddev.id==0X5310||lcddev.id==0X1963)LCD_WR_REG(0X28);	//
 865              		.loc 1 247 0
 866 0006 70B4     		push	{r4, r5, r6}
 867              	.LCFI17:
 868              		.cfi_def_cfa_offset 12
 869              		.cfi_offset 4, -12
 870              		.cfi_offset 5, -8
 871              		.cfi_offset 6, -4
 872              		.loc 1 248 0
 873 0008 9B88     		ldrh	r3, [r3, #4]
 874 000a 9342     		cmp	r3, r2
 875 000c 26D0     		beq	.L47
 876              		.loc 1 248 0 is_stmt 0 discriminator 2
 877 000e 46F60402 		movw	r2, #26628
 878 0012 9342     		cmp	r3, r2
 879 0014 22D0     		beq	.L47
 880              		.loc 1 248 0 discriminator 4
 881 0016 45F21032 		movw	r2, #21264
 882 001a 9342     		cmp	r3, r2
 883 001c 1ED0     		beq	.L47
 884              		.loc 1 248 0 discriminator 6
 885 001e 41F66312 		movw	r2, #6499
 886 0022 9342     		cmp	r3, r2
 887 0024 1AD0     		beq	.L47
 249:HARDWARE/LCD/ILI93xx.c **** 	else if(lcddev.id==0X5510)LCD_WR_REG(0X2800);	//关闭显示
 888              		.loc 1 249 0 is_stmt 1
 889 0026 45F21052 		movw	r2, #21776
 890 002a 9342     		cmp	r3, r2
 891 002c 26D0     		beq	.L53
 892              	.LVL24:
 893              	.LBB2368:
 894              	.LBB2369:
 895              	.LBB2370:
 896              	.LBB2371:
  94:HARDWARE/LCD/ILI93xx.c **** 	DATAOUT(data); 
 897              		.loc 1 94 0
 898 002e 4FF40072 		mov	r2, #512
  96:HARDWARE/LCD/ILI93xx.c **** 	LCD_WR_SET; 
 899              		.loc 1 96 0
 900 0032 8021     		movs	r1, #128
ARM GAS  C:\Users\czsta\AppData\Local\Temp\ccqYu3W2.s 			page 23


  93:HARDWARE/LCD/ILI93xx.c ****  	LCD_CS_CLR; 
 901              		.loc 1 93 0
 902 0034 4FF48074 		mov	r4, #256
  95:HARDWARE/LCD/ILI93xx.c **** 	LCD_WR_CLR; 
 903              		.loc 1 95 0
 904 0038 0726     		movs	r6, #7
 905              	.LBE2371:
 906              	.LBE2370:
 141:HARDWARE/LCD/ILI93xx.c **** }   
 907              		.loc 1 141 0
 908 003a 0025     		movs	r5, #0
 909              	.LBB2373:
 910              	.LBB2372:
  93:HARDWARE/LCD/ILI93xx.c ****  	LCD_CS_CLR; 
 911              		.loc 1 93 0
 912 003c 144B     		ldr	r3, .L54+4
  95:HARDWARE/LCD/ILI93xx.c **** 	LCD_WR_CLR; 
 913              		.loc 1 95 0
 914 003e 1548     		ldr	r0, .L54+8
  93:HARDWARE/LCD/ILI93xx.c ****  	LCD_CS_CLR; 
 915              		.loc 1 93 0
 916 0040 5C61     		str	r4, [r3, #20]
  94:HARDWARE/LCD/ILI93xx.c **** 	DATAOUT(data); 
 917              		.loc 1 94 0
 918 0042 5A61     		str	r2, [r3, #20]
  95:HARDWARE/LCD/ILI93xx.c **** 	LCD_WR_CLR; 
 919              		.loc 1 95 0
 920 0044 C660     		str	r6, [r0, #12]
  96:HARDWARE/LCD/ILI93xx.c **** 	LCD_WR_SET; 
 921              		.loc 1 96 0
 922 0046 5961     		str	r1, [r3, #20]
  97:HARDWARE/LCD/ILI93xx.c ****  	LCD_CS_SET;   
 923              		.loc 1 97 0
 924 0048 1961     		str	r1, [r3, #16]
  98:HARDWARE/LCD/ILI93xx.c **** }
 925              		.loc 1 98 0
 926 004a 1A61     		str	r2, [r3, #16]
 927              	.LVL25:
 928              	.LBE2372:
 929              	.LBE2373:
 141:HARDWARE/LCD/ILI93xx.c **** }   
 930              		.loc 1 141 0
 931 004c 1C61     		str	r4, [r3, #16]
 932 004e 5A61     		str	r2, [r3, #20]
 933 0050 C560     		str	r5, [r0, #12]
 934 0052 5961     		str	r1, [r3, #20]
 935              	.LBE2369:
 936              	.LBE2368:
 250:HARDWARE/LCD/ILI93xx.c **** 	else LCD_WriteReg(0X07,0x0);//关闭显示 
 251:HARDWARE/LCD/ILI93xx.c **** }   
 937              		.loc 1 251 0
 938 0054 70BC     		pop	{r4, r5, r6}
 939              	.LCFI18:
 940              		.cfi_remember_state
 941              		.cfi_restore 6
 942              		.cfi_restore 5
 943              		.cfi_restore 4
ARM GAS  C:\Users\czsta\AppData\Local\Temp\ccqYu3W2.s 			page 24


 944              		.cfi_def_cfa_offset 0
 945              	.LBB2375:
 946              	.LBB2374:
 141:HARDWARE/LCD/ILI93xx.c **** }   
 947              		.loc 1 141 0
 948 0056 1961     		str	r1, [r3, #16]
 949 0058 1A61     		str	r2, [r3, #16]
 950              	.LBE2374:
 951              	.LBE2375:
 952              		.loc 1 251 0
 953 005a 7047     		bx	lr
 954              	.LVL26:
 955              	.L47:
 956              	.LCFI19:
 957              		.cfi_restore_state
 958              	.LBB2376:
 959              	.LBB2377:
  93:HARDWARE/LCD/ILI93xx.c ****  	LCD_CS_CLR; 
 960              		.loc 1 93 0
 961 005c 4FF48075 		mov	r5, #256
  94:HARDWARE/LCD/ILI93xx.c **** 	DATAOUT(data); 
 962              		.loc 1 94 0
 963 0060 4FF40072 		mov	r2, #512
  95:HARDWARE/LCD/ILI93xx.c **** 	LCD_WR_CLR; 
 964              		.loc 1 95 0
 965 0064 2824     		movs	r4, #40
 966              	.LVL27:
 967              	.L52:
 968              	.LBE2377:
 969              	.LBE2376:
 970              	.LBB2378:
 971              	.LBB2379:
  96:HARDWARE/LCD/ILI93xx.c **** 	LCD_WR_SET; 
 972              		.loc 1 96 0
 973 0066 8021     		movs	r1, #128
  93:HARDWARE/LCD/ILI93xx.c ****  	LCD_CS_CLR; 
 974              		.loc 1 93 0
 975 0068 094B     		ldr	r3, .L54+4
  95:HARDWARE/LCD/ILI93xx.c **** 	LCD_WR_CLR; 
 976              		.loc 1 95 0
 977 006a 0A48     		ldr	r0, .L54+8
  93:HARDWARE/LCD/ILI93xx.c ****  	LCD_CS_CLR; 
 978              		.loc 1 93 0
 979 006c 5D61     		str	r5, [r3, #20]
  94:HARDWARE/LCD/ILI93xx.c **** 	DATAOUT(data); 
 980              		.loc 1 94 0
 981 006e 5A61     		str	r2, [r3, #20]
  95:HARDWARE/LCD/ILI93xx.c **** 	LCD_WR_CLR; 
 982              		.loc 1 95 0
 983 0070 C460     		str	r4, [r0, #12]
  96:HARDWARE/LCD/ILI93xx.c **** 	LCD_WR_SET; 
 984              		.loc 1 96 0
 985 0072 5961     		str	r1, [r3, #20]
 986              	.LBE2379:
 987              	.LBE2378:
 988              		.loc 1 251 0
 989 0074 70BC     		pop	{r4, r5, r6}
ARM GAS  C:\Users\czsta\AppData\Local\Temp\ccqYu3W2.s 			page 25


 990              	.LCFI20:
 991              		.cfi_remember_state
 992              		.cfi_restore 6
 993              		.cfi_restore 5
 994              		.cfi_restore 4
 995              		.cfi_def_cfa_offset 0
 996              	.LBB2382:
 997              	.LBB2380:
  97:HARDWARE/LCD/ILI93xx.c ****  	LCD_CS_SET;   
 998              		.loc 1 97 0
 999 0076 1961     		str	r1, [r3, #16]
  98:HARDWARE/LCD/ILI93xx.c **** }
 1000              		.loc 1 98 0
 1001 0078 1A61     		str	r2, [r3, #16]
 1002              	.LBE2380:
 1003              	.LBE2382:
 1004              		.loc 1 251 0
 1005 007a 7047     		bx	lr
 1006              	.L53:
 1007              	.LCFI21:
 1008              		.cfi_restore_state
 1009              	.LVL28:
 1010              	.LBB2383:
 1011              	.LBB2381:
  93:HARDWARE/LCD/ILI93xx.c ****  	LCD_CS_CLR; 
 1012              		.loc 1 93 0
 1013 007c 4FF48075 		mov	r5, #256
  94:HARDWARE/LCD/ILI93xx.c **** 	DATAOUT(data); 
 1014              		.loc 1 94 0
 1015 0080 4FF40072 		mov	r2, #512
  95:HARDWARE/LCD/ILI93xx.c **** 	LCD_WR_CLR; 
 1016              		.loc 1 95 0
 1017 0084 4FF42054 		mov	r4, #10240
 1018 0088 EDE7     		b	.L52
 1019              	.L55:
 1020 008a 00BF     		.align	2
 1021              	.L54:
 1022 008c 00000000 		.word	lcddev
 1023 0090 00100140 		.word	1073811456
 1024 0094 000C0140 		.word	1073810432
 1025              	.LBE2381:
 1026              	.LBE2383:
 1027              		.cfi_endproc
 1028              	.LFE43:
 1030              		.section	.text.LCD_SetCursor,"ax",%progbits
 1031              		.align	1
 1032              		.p2align 2,,3
 1033              		.global	LCD_SetCursor
 1034              		.syntax unified
 1035              		.thumb
 1036              		.thumb_func
 1037              		.fpu softvfp
 1039              	LCD_SetCursor:
 1040              	.LFB44:
 252:HARDWARE/LCD/ILI93xx.c **** //设置光标位置
 253:HARDWARE/LCD/ILI93xx.c **** //Xpos:横坐标
 254:HARDWARE/LCD/ILI93xx.c **** //Ypos:纵坐标
ARM GAS  C:\Users\czsta\AppData\Local\Temp\ccqYu3W2.s 			page 26


 255:HARDWARE/LCD/ILI93xx.c **** void LCD_SetCursor(u16 Xpos, u16 Ypos)
 256:HARDWARE/LCD/ILI93xx.c **** {	 
 1041              		.loc 1 256 0
 1042              		.cfi_startproc
 1043              		@ args = 0, pretend = 0, frame = 0
 1044              		@ frame_needed = 0, uses_anonymous_args = 0
 1045              	.LVL29:
 1046 0000 2DE9F047 		push	{r4, r5, r6, r7, r8, r9, r10, lr}
 1047              	.LCFI22:
 1048              		.cfi_def_cfa_offset 32
 1049              		.cfi_offset 4, -32
 1050              		.cfi_offset 5, -28
 1051              		.cfi_offset 6, -24
 1052              		.cfi_offset 7, -20
 1053              		.cfi_offset 8, -16
 1054              		.cfi_offset 9, -12
 1055              		.cfi_offset 10, -8
 1056              		.cfi_offset 14, -4
 257:HARDWARE/LCD/ILI93xx.c ****  	if(lcddev.id==0X9341||lcddev.id==0X5310)
 1057              		.loc 1 257 0
 1058 0004 49F24134 		movw	r4, #37697
 1059 0008 8D4B     		ldr	r3, .L72
 1060 000a 9A88     		ldrh	r2, [r3, #4]
 1061 000c B3F80AC0 		ldrh	ip, [r3, #10]
 1062 0010 A242     		cmp	r2, r4
 1063 0012 9F89     		ldrh	r7, [r3, #12]
 1064 0014 36D0     		beq	.L61
 1065              		.loc 1 257 0 is_stmt 0 discriminator 1
 1066 0016 45F21034 		movw	r4, #21264
 1067 001a A242     		cmp	r2, r4
 1068 001c 32D0     		beq	.L61
 258:HARDWARE/LCD/ILI93xx.c **** 	{		    
 259:HARDWARE/LCD/ILI93xx.c **** 		LCD_WR_REG(lcddev.setxcmd); 
 260:HARDWARE/LCD/ILI93xx.c **** 		LCD_WR_DATA(Xpos>>8);LCD_WR_DATA(Xpos&0XFF); 			 
 261:HARDWARE/LCD/ILI93xx.c **** 		LCD_WR_REG(lcddev.setycmd); 
 262:HARDWARE/LCD/ILI93xx.c **** 		LCD_WR_DATA(Ypos>>8);LCD_WR_DATA(Ypos&0XFF); 		
 263:HARDWARE/LCD/ILI93xx.c **** 	}else if(lcddev.id==0X6804)
 1069              		.loc 1 263 0 is_stmt 1
 1070 001e 46F60404 		movw	r4, #26628
 1071 0022 A242     		cmp	r2, r4
 1072 0024 27D0     		beq	.L69
 264:HARDWARE/LCD/ILI93xx.c **** 	{
 265:HARDWARE/LCD/ILI93xx.c **** 		if(lcddev.dir==1)Xpos=lcddev.width-1-Xpos;//横屏时处理
 266:HARDWARE/LCD/ILI93xx.c **** 		LCD_WR_REG(lcddev.setxcmd); 
 267:HARDWARE/LCD/ILI93xx.c **** 		LCD_WR_DATA(Xpos>>8);LCD_WR_DATA(Xpos&0XFF); 
 268:HARDWARE/LCD/ILI93xx.c **** 		LCD_WR_REG(lcddev.setycmd); 
 269:HARDWARE/LCD/ILI93xx.c **** 		LCD_WR_DATA(Ypos>>8);LCD_WR_DATA(Ypos&0XFF); 
 270:HARDWARE/LCD/ILI93xx.c **** 	}else if(lcddev.id==0X1963)
 1073              		.loc 1 270 0
 1074 0026 41F66314 		movw	r4, #6499
 1075 002a A242     		cmp	r2, r4
 1076 002c 00F0A280 		beq	.L70
 271:HARDWARE/LCD/ILI93xx.c **** 	{  			 		
 272:HARDWARE/LCD/ILI93xx.c **** 		if(lcddev.dir==0)//x坐标需要变换
 273:HARDWARE/LCD/ILI93xx.c **** 		{
 274:HARDWARE/LCD/ILI93xx.c **** 			Xpos=lcddev.width-1-Xpos;
 275:HARDWARE/LCD/ILI93xx.c **** 			LCD_WR_REG(lcddev.setxcmd); 
ARM GAS  C:\Users\czsta\AppData\Local\Temp\ccqYu3W2.s 			page 27


 276:HARDWARE/LCD/ILI93xx.c **** 			LCD_WR_DATA(0);LCD_WR_DATA(0); 		
 277:HARDWARE/LCD/ILI93xx.c **** 			LCD_WR_DATA(Xpos>>8);LCD_WR_DATA(Xpos&0XFF);		 	 
 278:HARDWARE/LCD/ILI93xx.c **** 		}else
 279:HARDWARE/LCD/ILI93xx.c **** 		{
 280:HARDWARE/LCD/ILI93xx.c **** 			LCD_WR_REG(lcddev.setxcmd); 
 281:HARDWARE/LCD/ILI93xx.c **** 			LCD_WR_DATA(Xpos>>8);LCD_WR_DATA(Xpos&0XFF); 		
 282:HARDWARE/LCD/ILI93xx.c **** 			LCD_WR_DATA((lcddev.width-1)>>8);LCD_WR_DATA((lcddev.width-1)&0XFF);		 	 			
 283:HARDWARE/LCD/ILI93xx.c **** 		}	
 284:HARDWARE/LCD/ILI93xx.c **** 		LCD_WR_REG(lcddev.setycmd); 
 285:HARDWARE/LCD/ILI93xx.c **** 		LCD_WR_DATA(Ypos>>8);LCD_WR_DATA(Ypos&0XFF); 		
 286:HARDWARE/LCD/ILI93xx.c **** 		LCD_WR_DATA((lcddev.height-1)>>8);LCD_WR_DATA((lcddev.height-1)&0XFF); 			 		
 287:HARDWARE/LCD/ILI93xx.c **** 		
 288:HARDWARE/LCD/ILI93xx.c **** 	}else if(lcddev.id==0X5510)
 1077              		.loc 1 288 0
 1078 0030 45F21054 		movw	r4, #21776
 1079 0034 A242     		cmp	r2, r4
 1080 0036 5BD0     		beq	.L71
 289:HARDWARE/LCD/ILI93xx.c **** 	{
 290:HARDWARE/LCD/ILI93xx.c **** 		LCD_WR_REG(lcddev.setxcmd);LCD_WR_DATA(Xpos>>8); 		
 291:HARDWARE/LCD/ILI93xx.c **** 		LCD_WR_REG(lcddev.setxcmd+1);LCD_WR_DATA(Xpos&0XFF);			 
 292:HARDWARE/LCD/ILI93xx.c **** 		LCD_WR_REG(lcddev.setycmd);LCD_WR_DATA(Ypos>>8);  		
 293:HARDWARE/LCD/ILI93xx.c **** 		LCD_WR_REG(lcddev.setycmd+1);LCD_WR_DATA(Ypos&0XFF);			
 294:HARDWARE/LCD/ILI93xx.c **** 	}else
 295:HARDWARE/LCD/ILI93xx.c **** 	{
 296:HARDWARE/LCD/ILI93xx.c **** 		if(lcddev.dir==1)Xpos=lcddev.width-1-Xpos;//横屏其实就是调转x,y坐标
 1081              		.loc 1 296 0
 1082 0038 9A79     		ldrb	r2, [r3, #6]	@ zero_extendqisi2
 1083 003a 012A     		cmp	r2, #1
 1084 003c 03D1     		bne	.L66
 1085              		.loc 1 296 0 is_stmt 0 discriminator 1
 1086 003e 1B88     		ldrh	r3, [r3]
 1087 0040 013B     		subs	r3, r3, #1
 1088 0042 181A     		subs	r0, r3, r0
 1089              	.LVL30:
 1090 0044 80B2     		uxth	r0, r0
 1091              	.LVL31:
 1092              	.L66:
 1093              	.LBB2414:
 1094              	.LBB2415:
 1095              	.LBB2416:
 1096              	.LBB2417:
  94:HARDWARE/LCD/ILI93xx.c **** 	DATAOUT(data); 
 1097              		.loc 1 94 0 is_stmt 1
 1098 0046 4FF40072 		mov	r2, #512
  96:HARDWARE/LCD/ILI93xx.c **** 	LCD_WR_SET; 
 1099              		.loc 1 96 0
 1100 004a 8024     		movs	r4, #128
  93:HARDWARE/LCD/ILI93xx.c ****  	LCD_CS_CLR; 
 1101              		.loc 1 93 0
 1102 004c 4FF48076 		mov	r6, #256
 1103 0050 7C4B     		ldr	r3, .L72+4
  95:HARDWARE/LCD/ILI93xx.c **** 	LCD_WR_CLR; 
 1104              		.loc 1 95 0
 1105 0052 7D4D     		ldr	r5, .L72+8
  93:HARDWARE/LCD/ILI93xx.c ****  	LCD_CS_CLR; 
 1106              		.loc 1 93 0
 1107 0054 5E61     		str	r6, [r3, #20]
ARM GAS  C:\Users\czsta\AppData\Local\Temp\ccqYu3W2.s 			page 28


  94:HARDWARE/LCD/ILI93xx.c **** 	DATAOUT(data); 
 1108              		.loc 1 94 0
 1109 0056 5A61     		str	r2, [r3, #20]
  95:HARDWARE/LCD/ILI93xx.c **** 	LCD_WR_CLR; 
 1110              		.loc 1 95 0
 1111 0058 C5F80CC0 		str	ip, [r5, #12]
  96:HARDWARE/LCD/ILI93xx.c **** 	LCD_WR_SET; 
 1112              		.loc 1 96 0
 1113 005c 5C61     		str	r4, [r3, #20]
  97:HARDWARE/LCD/ILI93xx.c ****  	LCD_CS_SET;   
 1114              		.loc 1 97 0
 1115 005e 1C61     		str	r4, [r3, #16]
  98:HARDWARE/LCD/ILI93xx.c **** }
 1116              		.loc 1 98 0
 1117 0060 1A61     		str	r2, [r3, #16]
 1118              	.LVL32:
 1119              	.LBE2417:
 1120              	.LBE2416:
 141:HARDWARE/LCD/ILI93xx.c **** }   
 1121              		.loc 1 141 0
 1122 0062 1E61     		str	r6, [r3, #16]
 1123 0064 5A61     		str	r2, [r3, #20]
 1124 0066 E860     		str	r0, [r5, #12]
 1125 0068 5C61     		str	r4, [r3, #20]
 1126 006a 1C61     		str	r4, [r3, #16]
 1127 006c 1A61     		str	r2, [r3, #16]
 1128              	.LVL33:
 1129              	.LBE2415:
 1130              	.LBE2414:
 1131              	.LBB2418:
 1132              	.LBB2419:
 1133              	.LBB2420:
 1134              	.LBB2421:
  93:HARDWARE/LCD/ILI93xx.c ****  	LCD_CS_CLR; 
 1135              		.loc 1 93 0
 1136 006e 5E61     		str	r6, [r3, #20]
  94:HARDWARE/LCD/ILI93xx.c **** 	DATAOUT(data); 
 1137              		.loc 1 94 0
 1138 0070 5A61     		str	r2, [r3, #20]
  95:HARDWARE/LCD/ILI93xx.c **** 	LCD_WR_CLR; 
 1139              		.loc 1 95 0
 1140 0072 EF60     		str	r7, [r5, #12]
 1141 0074 31E0     		b	.L68
 1142              	.LVL34:
 1143              	.L69:
 1144              	.LBE2421:
 1145              	.LBE2420:
 1146              	.LBE2419:
 1147              	.LBE2418:
 265:HARDWARE/LCD/ILI93xx.c **** 		LCD_WR_REG(lcddev.setxcmd); 
 1148              		.loc 1 265 0
 1149 0076 9A79     		ldrb	r2, [r3, #6]	@ zero_extendqisi2
 1150 0078 012A     		cmp	r2, #1
 1151 007a 03D1     		bne	.L61
 265:HARDWARE/LCD/ILI93xx.c **** 		LCD_WR_REG(lcddev.setxcmd); 
 1152              		.loc 1 265 0 is_stmt 0 discriminator 1
 1153 007c 1B88     		ldrh	r3, [r3]
ARM GAS  C:\Users\czsta\AppData\Local\Temp\ccqYu3W2.s 			page 29


 1154 007e 013B     		subs	r3, r3, #1
 1155 0080 181A     		subs	r0, r3, r0
 1156              	.LVL35:
 1157 0082 80B2     		uxth	r0, r0
 1158              	.LVL36:
 1159              	.L61:
 1160              	.LBB2425:
 1161              	.LBB2426:
  94:HARDWARE/LCD/ILI93xx.c **** 	DATAOUT(data); 
 1162              		.loc 1 94 0 is_stmt 1
 1163 0084 4FF40072 		mov	r2, #512
  96:HARDWARE/LCD/ILI93xx.c **** 	LCD_WR_SET; 
 1164              		.loc 1 96 0
 1165 0088 8024     		movs	r4, #128
  93:HARDWARE/LCD/ILI93xx.c ****  	LCD_CS_CLR; 
 1166              		.loc 1 93 0
 1167 008a 4FF48076 		mov	r6, #256
 1168 008e 6D4B     		ldr	r3, .L72+4
  95:HARDWARE/LCD/ILI93xx.c **** 	LCD_WR_CLR; 
 1169              		.loc 1 95 0
 1170 0090 6D4D     		ldr	r5, .L72+8
 1171              	.LBE2426:
 1172              	.LBE2425:
 267:HARDWARE/LCD/ILI93xx.c **** 		LCD_WR_REG(lcddev.setycmd); 
 1173              		.loc 1 267 0
 1174 0092 4FEA1028 		lsr	r8, r0, #8
 1175 0096 5FFA80FE 		uxtb	lr, r0
 269:HARDWARE/LCD/ILI93xx.c **** 	}else if(lcddev.id==0X1963)
 1176              		.loc 1 269 0
 1177 009a 080A     		lsrs	r0, r1, #8
 1178              	.LVL37:
 1179              	.LBB2429:
 1180              	.LBB2427:
  93:HARDWARE/LCD/ILI93xx.c ****  	LCD_CS_CLR; 
 1181              		.loc 1 93 0
 1182 009c 5E61     		str	r6, [r3, #20]
 1183              	.LBE2427:
 1184              	.LBE2429:
 269:HARDWARE/LCD/ILI93xx.c **** 	}else if(lcddev.id==0X1963)
 1185              		.loc 1 269 0
 1186 009e C9B2     		uxtb	r1, r1
 1187              	.LVL38:
 1188              	.LBB2430:
 1189              	.LBB2428:
  94:HARDWARE/LCD/ILI93xx.c **** 	DATAOUT(data); 
 1190              		.loc 1 94 0
 1191 00a0 5A61     		str	r2, [r3, #20]
  95:HARDWARE/LCD/ILI93xx.c **** 	LCD_WR_CLR; 
 1192              		.loc 1 95 0
 1193 00a2 C5F80CC0 		str	ip, [r5, #12]
  96:HARDWARE/LCD/ILI93xx.c **** 	LCD_WR_SET; 
 1194              		.loc 1 96 0
 1195 00a6 5C61     		str	r4, [r3, #20]
  97:HARDWARE/LCD/ILI93xx.c ****  	LCD_CS_SET;   
 1196              		.loc 1 97 0
 1197 00a8 1C61     		str	r4, [r3, #16]
  98:HARDWARE/LCD/ILI93xx.c **** }
ARM GAS  C:\Users\czsta\AppData\Local\Temp\ccqYu3W2.s 			page 30


 1198              		.loc 1 98 0
 1199 00aa 1A61     		str	r2, [r3, #16]
 1200              	.LVL39:
 1201              	.LBE2428:
 1202              	.LBE2430:
 267:HARDWARE/LCD/ILI93xx.c **** 		LCD_WR_REG(lcddev.setycmd); 
 1203              		.loc 1 267 0
 1204 00ac 1E61     		str	r6, [r3, #16]
 1205 00ae 5A61     		str	r2, [r3, #20]
 1206 00b0 C5F80C80 		str	r8, [r5, #12]
 1207 00b4 5C61     		str	r4, [r3, #20]
 1208 00b6 1C61     		str	r4, [r3, #16]
 1209 00b8 1A61     		str	r2, [r3, #16]
 1210 00ba 1E61     		str	r6, [r3, #16]
 1211 00bc 5A61     		str	r2, [r3, #20]
 1212 00be C5F80CE0 		str	lr, [r5, #12]
 1213 00c2 5C61     		str	r4, [r3, #20]
 1214 00c4 1C61     		str	r4, [r3, #16]
 1215 00c6 1A61     		str	r2, [r3, #16]
 1216              	.LVL40:
 1217              	.LBB2431:
 1218              	.LBB2432:
  93:HARDWARE/LCD/ILI93xx.c ****  	LCD_CS_CLR; 
 1219              		.loc 1 93 0
 1220 00c8 5E61     		str	r6, [r3, #20]
  94:HARDWARE/LCD/ILI93xx.c **** 	DATAOUT(data); 
 1221              		.loc 1 94 0
 1222 00ca 5A61     		str	r2, [r3, #20]
  95:HARDWARE/LCD/ILI93xx.c **** 	LCD_WR_CLR; 
 1223              		.loc 1 95 0
 1224 00cc EF60     		str	r7, [r5, #12]
  96:HARDWARE/LCD/ILI93xx.c **** 	LCD_WR_SET; 
 1225              		.loc 1 96 0
 1226 00ce 5C61     		str	r4, [r3, #20]
  97:HARDWARE/LCD/ILI93xx.c ****  	LCD_CS_SET;   
 1227              		.loc 1 97 0
 1228 00d0 1C61     		str	r4, [r3, #16]
  98:HARDWARE/LCD/ILI93xx.c **** }
 1229              		.loc 1 98 0
 1230 00d2 1A61     		str	r2, [r3, #16]
 1231              	.LVL41:
 1232              	.LBE2432:
 1233              	.LBE2431:
 269:HARDWARE/LCD/ILI93xx.c **** 	}else if(lcddev.id==0X1963)
 1234              		.loc 1 269 0
 1235 00d4 1E61     		str	r6, [r3, #16]
 1236 00d6 5A61     		str	r2, [r3, #20]
 1237 00d8 E860     		str	r0, [r5, #12]
 1238              	.L68:
 1239              	.LBB2433:
 1240              	.LBB2424:
 1241              	.LBB2423:
 1242              	.LBB2422:
  96:HARDWARE/LCD/ILI93xx.c **** 	LCD_WR_SET; 
 1243              		.loc 1 96 0
 1244 00da 5C61     		str	r4, [r3, #20]
  97:HARDWARE/LCD/ILI93xx.c ****  	LCD_CS_SET;   
ARM GAS  C:\Users\czsta\AppData\Local\Temp\ccqYu3W2.s 			page 31


 1245              		.loc 1 97 0
 1246 00dc 1C61     		str	r4, [r3, #16]
  98:HARDWARE/LCD/ILI93xx.c **** }
 1247              		.loc 1 98 0
 1248 00de 1A61     		str	r2, [r3, #16]
 1249              	.LBE2422:
 1250              	.LBE2423:
 141:HARDWARE/LCD/ILI93xx.c **** }   
 1251              		.loc 1 141 0
 1252 00e0 1E61     		str	r6, [r3, #16]
 1253 00e2 5A61     		str	r2, [r3, #20]
 1254 00e4 E960     		str	r1, [r5, #12]
 1255 00e6 5C61     		str	r4, [r3, #20]
 1256 00e8 1C61     		str	r4, [r3, #16]
 1257 00ea 1A61     		str	r2, [r3, #16]
 1258              	.LBE2424:
 1259              	.LBE2433:
 297:HARDWARE/LCD/ILI93xx.c **** 		LCD_WriteReg(lcddev.setxcmd, Xpos);
 298:HARDWARE/LCD/ILI93xx.c **** 		LCD_WriteReg(lcddev.setycmd, Ypos);
 299:HARDWARE/LCD/ILI93xx.c **** 	}	 
 300:HARDWARE/LCD/ILI93xx.c **** } 		 
 1260              		.loc 1 300 0
 1261 00ec BDE8F087 		pop	{r4, r5, r6, r7, r8, r9, r10, pc}
 1262              	.LVL42:
 1263              	.L71:
 1264              	.LBB2434:
 1265              	.LBB2435:
  94:HARDWARE/LCD/ILI93xx.c **** 	DATAOUT(data); 
 1266              		.loc 1 94 0
 1267 00f0 4FF40072 		mov	r2, #512
  93:HARDWARE/LCD/ILI93xx.c ****  	LCD_CS_CLR; 
 1268              		.loc 1 93 0
 1269 00f4 4FF48076 		mov	r6, #256
  96:HARDWARE/LCD/ILI93xx.c **** 	LCD_WR_SET; 
 1270              		.loc 1 96 0
 1271 00f8 8024     		movs	r4, #128
  93:HARDWARE/LCD/ILI93xx.c ****  	LCD_CS_CLR; 
 1272              		.loc 1 93 0
 1273 00fa 524B     		ldr	r3, .L72+4
  95:HARDWARE/LCD/ILI93xx.c **** 	LCD_WR_CLR; 
 1274              		.loc 1 95 0
 1275 00fc 524D     		ldr	r5, .L72+8
 1276              	.LBE2435:
 1277              	.LBE2434:
 291:HARDWARE/LCD/ILI93xx.c **** 		LCD_WR_REG(lcddev.setycmd);LCD_WR_DATA(Ypos>>8);  		
 1278              		.loc 1 291 0
 1279 00fe 0CF10108 		add	r8, ip, #1
 293:HARDWARE/LCD/ILI93xx.c **** 	}else
 1280              		.loc 1 293 0
 1281 0102 07F1010E 		add	lr, r7, #1
 1282              	.LBB2441:
 1283              	.LBB2436:
  93:HARDWARE/LCD/ILI93xx.c ****  	LCD_CS_CLR; 
 1284              		.loc 1 93 0
 1285 0106 5E61     		str	r6, [r3, #20]
 1286              	.LBE2436:
 1287              	.LBE2441:
ARM GAS  C:\Users\czsta\AppData\Local\Temp\ccqYu3W2.s 			page 32


 290:HARDWARE/LCD/ILI93xx.c **** 		LCD_WR_REG(lcddev.setxcmd+1);LCD_WR_DATA(Xpos&0XFF);			 
 1288              		.loc 1 290 0
 1289 0108 4FEA1029 		lsr	r9, r0, #8
 1290              	.LBB2442:
 1291              	.LBB2437:
  94:HARDWARE/LCD/ILI93xx.c **** 	DATAOUT(data); 
 1292              		.loc 1 94 0
 1293 010c 5A61     		str	r2, [r3, #20]
 1294              	.LBE2437:
 1295              	.LBE2442:
 1296              	.LBB2443:
 1297              	.LBB2444:
  95:HARDWARE/LCD/ILI93xx.c **** 	LCD_WR_CLR; 
 1298              		.loc 1 95 0
 1299 010e 1FFA88F8 		uxth	r8, r8
 1300              	.LBE2444:
 1301              	.LBE2443:
 1302              	.LBB2446:
 1303              	.LBB2438:
 1304 0112 C5F80CC0 		str	ip, [r5, #12]
 1305              	.LBE2438:
 1306              	.LBE2446:
 1307              	.LBB2447:
 1308              	.LBB2448:
 1309 0116 1FFA8EFE 		uxth	lr, lr
 1310              	.LBE2448:
 1311              	.LBE2447:
 291:HARDWARE/LCD/ILI93xx.c **** 		LCD_WR_REG(lcddev.setycmd);LCD_WR_DATA(Ypos>>8);  		
 1312              		.loc 1 291 0
 1313 011a 5FFA80FC 		uxtb	ip, r0
 292:HARDWARE/LCD/ILI93xx.c **** 		LCD_WR_REG(lcddev.setycmd+1);LCD_WR_DATA(Ypos&0XFF);			
 1314              		.loc 1 292 0
 1315 011e 080A     		lsrs	r0, r1, #8
 1316              	.LVL43:
 1317              	.LBB2450:
 1318              	.LBB2439:
  96:HARDWARE/LCD/ILI93xx.c **** 	LCD_WR_SET; 
 1319              		.loc 1 96 0
 1320 0120 5C61     		str	r4, [r3, #20]
 1321              	.LBE2439:
 1322              	.LBE2450:
 293:HARDWARE/LCD/ILI93xx.c **** 	}else
 1323              		.loc 1 293 0
 1324 0122 C9B2     		uxtb	r1, r1
 1325              	.LVL44:
 1326              	.LBB2451:
 1327              	.LBB2440:
  97:HARDWARE/LCD/ILI93xx.c ****  	LCD_CS_SET;   
 1328              		.loc 1 97 0
 1329 0124 1C61     		str	r4, [r3, #16]
  98:HARDWARE/LCD/ILI93xx.c **** }
 1330              		.loc 1 98 0
 1331 0126 1A61     		str	r2, [r3, #16]
 1332              	.LVL45:
 1333              	.LBE2440:
 1334              	.LBE2451:
 290:HARDWARE/LCD/ILI93xx.c **** 		LCD_WR_REG(lcddev.setxcmd+1);LCD_WR_DATA(Xpos&0XFF);			 
ARM GAS  C:\Users\czsta\AppData\Local\Temp\ccqYu3W2.s 			page 33


 1335              		.loc 1 290 0
 1336 0128 1E61     		str	r6, [r3, #16]
 1337 012a 5A61     		str	r2, [r3, #20]
 1338 012c C5F80C90 		str	r9, [r5, #12]
 1339 0130 5C61     		str	r4, [r3, #20]
 1340 0132 1C61     		str	r4, [r3, #16]
 1341 0134 1A61     		str	r2, [r3, #16]
 1342              	.LVL46:
 1343              	.LBB2452:
 1344              	.LBB2445:
  93:HARDWARE/LCD/ILI93xx.c ****  	LCD_CS_CLR; 
 1345              		.loc 1 93 0
 1346 0136 5E61     		str	r6, [r3, #20]
  94:HARDWARE/LCD/ILI93xx.c **** 	DATAOUT(data); 
 1347              		.loc 1 94 0
 1348 0138 5A61     		str	r2, [r3, #20]
  95:HARDWARE/LCD/ILI93xx.c **** 	LCD_WR_CLR; 
 1349              		.loc 1 95 0
 1350 013a C5F80C80 		str	r8, [r5, #12]
  96:HARDWARE/LCD/ILI93xx.c **** 	LCD_WR_SET; 
 1351              		.loc 1 96 0
 1352 013e 5C61     		str	r4, [r3, #20]
  97:HARDWARE/LCD/ILI93xx.c ****  	LCD_CS_SET;   
 1353              		.loc 1 97 0
 1354 0140 1C61     		str	r4, [r3, #16]
  98:HARDWARE/LCD/ILI93xx.c **** }
 1355              		.loc 1 98 0
 1356 0142 1A61     		str	r2, [r3, #16]
 1357              	.LVL47:
 1358              	.LBE2445:
 1359              	.LBE2452:
 291:HARDWARE/LCD/ILI93xx.c **** 		LCD_WR_REG(lcddev.setycmd);LCD_WR_DATA(Ypos>>8);  		
 1360              		.loc 1 291 0
 1361 0144 1E61     		str	r6, [r3, #16]
 1362 0146 5A61     		str	r2, [r3, #20]
 1363 0148 C5F80CC0 		str	ip, [r5, #12]
 1364 014c 5C61     		str	r4, [r3, #20]
 1365 014e 1C61     		str	r4, [r3, #16]
 1366 0150 1A61     		str	r2, [r3, #16]
 1367              	.LVL48:
 1368              	.LBB2453:
 1369              	.LBB2454:
  93:HARDWARE/LCD/ILI93xx.c ****  	LCD_CS_CLR; 
 1370              		.loc 1 93 0
 1371 0152 5E61     		str	r6, [r3, #20]
  94:HARDWARE/LCD/ILI93xx.c **** 	DATAOUT(data); 
 1372              		.loc 1 94 0
 1373 0154 5A61     		str	r2, [r3, #20]
  95:HARDWARE/LCD/ILI93xx.c **** 	LCD_WR_CLR; 
 1374              		.loc 1 95 0
 1375 0156 EF60     		str	r7, [r5, #12]
  96:HARDWARE/LCD/ILI93xx.c **** 	LCD_WR_SET; 
 1376              		.loc 1 96 0
 1377 0158 5C61     		str	r4, [r3, #20]
  97:HARDWARE/LCD/ILI93xx.c ****  	LCD_CS_SET;   
 1378              		.loc 1 97 0
 1379 015a 1C61     		str	r4, [r3, #16]
ARM GAS  C:\Users\czsta\AppData\Local\Temp\ccqYu3W2.s 			page 34


  98:HARDWARE/LCD/ILI93xx.c **** }
 1380              		.loc 1 98 0
 1381 015c 1A61     		str	r2, [r3, #16]
 1382              	.LVL49:
 1383              	.LBE2454:
 1384              	.LBE2453:
 292:HARDWARE/LCD/ILI93xx.c **** 		LCD_WR_REG(lcddev.setycmd+1);LCD_WR_DATA(Ypos&0XFF);			
 1385              		.loc 1 292 0
 1386 015e 1E61     		str	r6, [r3, #16]
 1387 0160 5A61     		str	r2, [r3, #20]
 1388 0162 E860     		str	r0, [r5, #12]
 1389 0164 5C61     		str	r4, [r3, #20]
 1390 0166 1C61     		str	r4, [r3, #16]
 1391 0168 1A61     		str	r2, [r3, #16]
 1392              	.LVL50:
 1393              	.LBB2455:
 1394              	.LBB2449:
  93:HARDWARE/LCD/ILI93xx.c ****  	LCD_CS_CLR; 
 1395              		.loc 1 93 0
 1396 016a 5E61     		str	r6, [r3, #20]
  94:HARDWARE/LCD/ILI93xx.c **** 	DATAOUT(data); 
 1397              		.loc 1 94 0
 1398 016c 5A61     		str	r2, [r3, #20]
  95:HARDWARE/LCD/ILI93xx.c **** 	LCD_WR_CLR; 
 1399              		.loc 1 95 0
 1400 016e C5F80CE0 		str	lr, [r5, #12]
 1401 0172 B2E7     		b	.L68
 1402              	.LVL51:
 1403              	.L70:
 1404              	.LBE2449:
 1405              	.LBE2455:
 272:HARDWARE/LCD/ILI93xx.c **** 		{
 1406              		.loc 1 272 0
 1407 0174 93F806E0 		ldrb	lr, [r3, #6]	@ zero_extendqisi2
 1408 0178 1A88     		ldrh	r2, [r3]
 1409 017a BEF1000F 		cmp	lr, #0
 1410 017e 65D1     		bne	.L63
 1411              	.LBB2456:
 1412              	.LBB2457:
  94:HARDWARE/LCD/ILI93xx.c **** 	DATAOUT(data); 
 1413              		.loc 1 94 0
 1414 0180 4FF40074 		mov	r4, #512
  93:HARDWARE/LCD/ILI93xx.c ****  	LCD_CS_CLR; 
 1415              		.loc 1 93 0
 1416 0184 4FF48076 		mov	r6, #256
  96:HARDWARE/LCD/ILI93xx.c **** 	LCD_WR_SET; 
 1417              		.loc 1 96 0
 1418 0188 8025     		movs	r5, #128
 1419              	.LBE2457:
 1420              	.LBE2456:
 274:HARDWARE/LCD/ILI93xx.c **** 			LCD_WR_REG(lcddev.setxcmd); 
 1421              		.loc 1 274 0
 1422 018a 013A     		subs	r2, r2, #1
 1423              	.LBB2462:
 1424              	.LBB2458:
  95:HARDWARE/LCD/ILI93xx.c **** 	LCD_WR_CLR; 
 1425              		.loc 1 95 0
ARM GAS  C:\Users\czsta\AppData\Local\Temp\ccqYu3W2.s 			page 35


 1426 018c DFF8B880 		ldr	r8, .L72+8
 1427              	.LBE2458:
 1428              	.LBE2462:
 274:HARDWARE/LCD/ILI93xx.c **** 			LCD_WR_REG(lcddev.setxcmd); 
 1429              		.loc 1 274 0
 1430 0190 101A     		subs	r0, r2, r0
 1431              	.LVL52:
 1432              	.LBB2463:
 1433              	.LBB2459:
  93:HARDWARE/LCD/ILI93xx.c ****  	LCD_CS_CLR; 
 1434              		.loc 1 93 0
 1435 0192 2C4A     		ldr	r2, .L72+4
 1436              	.LBE2459:
 1437              	.LBE2463:
 274:HARDWARE/LCD/ILI93xx.c **** 			LCD_WR_REG(lcddev.setxcmd); 
 1438              		.loc 1 274 0
 1439 0194 80B2     		uxth	r0, r0
 1440              	.LVL53:
 1441              	.LBB2464:
 1442              	.LBB2460:
  93:HARDWARE/LCD/ILI93xx.c ****  	LCD_CS_CLR; 
 1443              		.loc 1 93 0
 1444 0196 5661     		str	r6, [r2, #20]
  94:HARDWARE/LCD/ILI93xx.c **** 	DATAOUT(data); 
 1445              		.loc 1 94 0
 1446 0198 5461     		str	r4, [r2, #20]
  95:HARDWARE/LCD/ILI93xx.c **** 	LCD_WR_CLR; 
 1447              		.loc 1 95 0
 1448 019a C8F80CC0 		str	ip, [r8, #12]
 1449              	.LBE2460:
 1450              	.LBE2464:
 277:HARDWARE/LCD/ILI93xx.c **** 		}else
 1451              		.loc 1 277 0
 1452 019e 4FEA102C 		lsr	ip, r0, #8
 1453 01a2 C0B2     		uxtb	r0, r0
 1454              	.LVL54:
 1455              	.LBB2465:
 1456              	.LBB2461:
  96:HARDWARE/LCD/ILI93xx.c **** 	LCD_WR_SET; 
 1457              		.loc 1 96 0
 1458 01a4 5561     		str	r5, [r2, #20]
  97:HARDWARE/LCD/ILI93xx.c ****  	LCD_CS_SET;   
 1459              		.loc 1 97 0
 1460 01a6 1561     		str	r5, [r2, #16]
  98:HARDWARE/LCD/ILI93xx.c **** }
 1461              		.loc 1 98 0
 1462 01a8 1461     		str	r4, [r2, #16]
 1463              	.LVL55:
 1464              	.LBE2461:
 1465              	.LBE2465:
 276:HARDWARE/LCD/ILI93xx.c **** 			LCD_WR_DATA(Xpos>>8);LCD_WR_DATA(Xpos&0XFF);		 	 
 1466              		.loc 1 276 0
 1467 01aa 1661     		str	r6, [r2, #16]
 1468 01ac 5461     		str	r4, [r2, #20]
 1469 01ae C8F80CE0 		str	lr, [r8, #12]
 1470 01b2 5561     		str	r5, [r2, #20]
 1471 01b4 1561     		str	r5, [r2, #16]
ARM GAS  C:\Users\czsta\AppData\Local\Temp\ccqYu3W2.s 			page 36


 1472 01b6 1461     		str	r4, [r2, #16]
 1473 01b8 1661     		str	r6, [r2, #16]
 1474 01ba 5461     		str	r4, [r2, #20]
 1475 01bc C8F80CE0 		str	lr, [r8, #12]
 1476 01c0 5561     		str	r5, [r2, #20]
 1477 01c2 1561     		str	r5, [r2, #16]
 1478 01c4 1461     		str	r4, [r2, #16]
 277:HARDWARE/LCD/ILI93xx.c **** 		}else
 1479              		.loc 1 277 0
 1480 01c6 1661     		str	r6, [r2, #16]
 1481 01c8 5461     		str	r4, [r2, #20]
 1482 01ca C8F80CC0 		str	ip, [r8, #12]
 1483 01ce 5561     		str	r5, [r2, #20]
 1484 01d0 1561     		str	r5, [r2, #16]
 1485 01d2 1461     		str	r4, [r2, #16]
 1486 01d4 1661     		str	r6, [r2, #16]
 1487 01d6 5461     		str	r4, [r2, #20]
 1488 01d8 C8F80C00 		str	r0, [r8, #12]
 1489 01dc 5561     		str	r5, [r2, #20]
 1490 01de 1561     		str	r5, [r2, #16]
 1491 01e0 1461     		str	r4, [r2, #16]
 1492              	.L64:
 1493              	.LVL56:
 1494              	.LBB2466:
 1495              	.LBB2467:
  94:HARDWARE/LCD/ILI93xx.c **** 	DATAOUT(data); 
 1496              		.loc 1 94 0
 1497 01e2 4FF40070 		mov	r0, #512
  96:HARDWARE/LCD/ILI93xx.c **** 	LCD_WR_SET; 
 1498              		.loc 1 96 0
 1499 01e6 8024     		movs	r4, #128
  93:HARDWARE/LCD/ILI93xx.c ****  	LCD_CS_CLR; 
 1500              		.loc 1 93 0
 1501 01e8 4FF48076 		mov	r6, #256
 1502              	.LBE2467:
 1503              	.LBE2466:
 286:HARDWARE/LCD/ILI93xx.c **** 		
 1504              		.loc 1 286 0
 1505 01ec 5B88     		ldrh	r3, [r3, #2]
 1506              	.LBB2470:
 1507              	.LBB2468:
  93:HARDWARE/LCD/ILI93xx.c ****  	LCD_CS_CLR; 
 1508              		.loc 1 93 0
 1509 01ee 154A     		ldr	r2, .L72+4
  95:HARDWARE/LCD/ILI93xx.c **** 	LCD_WR_CLR; 
 1510              		.loc 1 95 0
 1511 01f0 154D     		ldr	r5, .L72+8
 1512              	.LBE2468:
 1513              	.LBE2470:
 285:HARDWARE/LCD/ILI93xx.c **** 		LCD_WR_DATA((lcddev.height-1)>>8);LCD_WR_DATA((lcddev.height-1)&0XFF); 			 		
 1514              		.loc 1 285 0
 1515 01f2 4FEA112C 		lsr	ip, r1, #8
 286:HARDWARE/LCD/ILI93xx.c **** 		
 1516              		.loc 1 286 0
 1517 01f6 013B     		subs	r3, r3, #1
 285:HARDWARE/LCD/ILI93xx.c **** 		LCD_WR_DATA((lcddev.height-1)>>8);LCD_WR_DATA((lcddev.height-1)&0XFF); 			 		
 1518              		.loc 1 285 0
ARM GAS  C:\Users\czsta\AppData\Local\Temp\ccqYu3W2.s 			page 37


 1519 01f8 C9B2     		uxtb	r1, r1
 1520              	.LVL57:
 1521              	.LBB2471:
 1522              	.LBB2469:
  93:HARDWARE/LCD/ILI93xx.c ****  	LCD_CS_CLR; 
 1523              		.loc 1 93 0
 1524 01fa 5661     		str	r6, [r2, #20]
  94:HARDWARE/LCD/ILI93xx.c **** 	DATAOUT(data); 
 1525              		.loc 1 94 0
 1526 01fc 5061     		str	r0, [r2, #20]
  95:HARDWARE/LCD/ILI93xx.c **** 	LCD_WR_CLR; 
 1527              		.loc 1 95 0
 1528 01fe EF60     		str	r7, [r5, #12]
  96:HARDWARE/LCD/ILI93xx.c **** 	LCD_WR_SET; 
 1529              		.loc 1 96 0
 1530 0200 5461     		str	r4, [r2, #20]
  97:HARDWARE/LCD/ILI93xx.c ****  	LCD_CS_SET;   
 1531              		.loc 1 97 0
 1532 0202 1461     		str	r4, [r2, #16]
  98:HARDWARE/LCD/ILI93xx.c **** }
 1533              		.loc 1 98 0
 1534 0204 1061     		str	r0, [r2, #16]
 1535              	.LVL58:
 1536              	.LBE2469:
 1537              	.LBE2471:
 285:HARDWARE/LCD/ILI93xx.c **** 		LCD_WR_DATA((lcddev.height-1)>>8);LCD_WR_DATA((lcddev.height-1)&0XFF); 			 		
 1538              		.loc 1 285 0
 1539 0206 1661     		str	r6, [r2, #16]
 1540 0208 5061     		str	r0, [r2, #20]
 1541 020a C5F80CC0 		str	ip, [r5, #12]
 1542 020e 5461     		str	r4, [r2, #20]
 1543 0210 1461     		str	r4, [r2, #16]
 1544 0212 1061     		str	r0, [r2, #16]
 1545 0214 1661     		str	r6, [r2, #16]
 1546 0216 5061     		str	r0, [r2, #20]
 1547 0218 E960     		str	r1, [r5, #12]
 286:HARDWARE/LCD/ILI93xx.c **** 		
 1548              		.loc 1 286 0
 1549 021a 1912     		asrs	r1, r3, #8
 1550 021c DBB2     		uxtb	r3, r3
 285:HARDWARE/LCD/ILI93xx.c **** 		LCD_WR_DATA((lcddev.height-1)>>8);LCD_WR_DATA((lcddev.height-1)&0XFF); 			 		
 1551              		.loc 1 285 0
 1552 021e 5461     		str	r4, [r2, #20]
 1553 0220 1461     		str	r4, [r2, #16]
 1554 0222 1061     		str	r0, [r2, #16]
 286:HARDWARE/LCD/ILI93xx.c **** 		
 1555              		.loc 1 286 0
 1556 0224 1661     		str	r6, [r2, #16]
 1557 0226 5061     		str	r0, [r2, #20]
 1558 0228 E960     		str	r1, [r5, #12]
 1559 022a 5461     		str	r4, [r2, #20]
 1560 022c 1461     		str	r4, [r2, #16]
 1561 022e 1061     		str	r0, [r2, #16]
 1562 0230 1661     		str	r6, [r2, #16]
 1563 0232 5061     		str	r0, [r2, #20]
 1564 0234 EB60     		str	r3, [r5, #12]
 1565 0236 5461     		str	r4, [r2, #20]
ARM GAS  C:\Users\czsta\AppData\Local\Temp\ccqYu3W2.s 			page 38


 1566 0238 1461     		str	r4, [r2, #16]
 1567 023a 1061     		str	r0, [r2, #16]
 1568              		.loc 1 300 0
 1569 023c BDE8F087 		pop	{r4, r5, r6, r7, r8, r9, r10, pc}
 1570              	.L73:
 1571              		.align	2
 1572              	.L72:
 1573 0240 00000000 		.word	lcddev
 1574 0244 00100140 		.word	1073811456
 1575 0248 000C0140 		.word	1073810432
 1576              	.LVL59:
 1577              	.L63:
 1578              	.LBB2472:
 1579              	.LBB2473:
  94:HARDWARE/LCD/ILI93xx.c **** 	DATAOUT(data); 
 1580              		.loc 1 94 0
 1581 024c 4FF40075 		mov	r5, #512
  96:HARDWARE/LCD/ILI93xx.c **** 	LCD_WR_SET; 
 1582              		.loc 1 96 0
 1583 0250 8026     		movs	r6, #128
  93:HARDWARE/LCD/ILI93xx.c ****  	LCD_CS_CLR; 
 1584              		.loc 1 93 0
 1585 0252 4FF48078 		mov	r8, #256
  95:HARDWARE/LCD/ILI93xx.c **** 	LCD_WR_CLR; 
 1586              		.loc 1 95 0
 1587 0256 DFF868E0 		ldr	lr, .L74+4
 1588              	.LBE2473:
 1589              	.LBE2472:
 282:HARDWARE/LCD/ILI93xx.c **** 		}	
 1590              		.loc 1 282 0
 1591 025a 541E     		subs	r4, r2, #1
 1592              	.LBB2476:
 1593              	.LBB2474:
  93:HARDWARE/LCD/ILI93xx.c ****  	LCD_CS_CLR; 
 1594              		.loc 1 93 0
 1595 025c 174A     		ldr	r2, .L74
 1596              	.LBE2474:
 1597              	.LBE2476:
 281:HARDWARE/LCD/ILI93xx.c **** 			LCD_WR_DATA((lcddev.width-1)>>8);LCD_WR_DATA((lcddev.width-1)&0XFF);		 	 			
 1598              		.loc 1 281 0
 1599 025e 4FEA1029 		lsr	r9, r0, #8
 1600 0262 5FFA80FA 		uxtb	r10, r0
 282:HARDWARE/LCD/ILI93xx.c **** 		}	
 1601              		.loc 1 282 0
 1602 0266 2012     		asrs	r0, r4, #8
 1603              	.LVL60:
 1604 0268 E4B2     		uxtb	r4, r4
 1605              	.LBB2477:
 1606              	.LBB2475:
  93:HARDWARE/LCD/ILI93xx.c ****  	LCD_CS_CLR; 
 1607              		.loc 1 93 0
 1608 026a C2F81480 		str	r8, [r2, #20]
  94:HARDWARE/LCD/ILI93xx.c **** 	DATAOUT(data); 
 1609              		.loc 1 94 0
 1610 026e 5561     		str	r5, [r2, #20]
  95:HARDWARE/LCD/ILI93xx.c **** 	LCD_WR_CLR; 
 1611              		.loc 1 95 0
ARM GAS  C:\Users\czsta\AppData\Local\Temp\ccqYu3W2.s 			page 39


 1612 0270 CEF80CC0 		str	ip, [lr, #12]
  96:HARDWARE/LCD/ILI93xx.c **** 	LCD_WR_SET; 
 1613              		.loc 1 96 0
 1614 0274 5661     		str	r6, [r2, #20]
  97:HARDWARE/LCD/ILI93xx.c ****  	LCD_CS_SET;   
 1615              		.loc 1 97 0
 1616 0276 1661     		str	r6, [r2, #16]
  98:HARDWARE/LCD/ILI93xx.c **** }
 1617              		.loc 1 98 0
 1618 0278 1561     		str	r5, [r2, #16]
 1619              	.LVL61:
 1620              	.LBE2475:
 1621              	.LBE2477:
 281:HARDWARE/LCD/ILI93xx.c **** 			LCD_WR_DATA((lcddev.width-1)>>8);LCD_WR_DATA((lcddev.width-1)&0XFF);		 	 			
 1622              		.loc 1 281 0
 1623 027a C2F81080 		str	r8, [r2, #16]
 1624 027e 5561     		str	r5, [r2, #20]
 1625 0280 CEF80C90 		str	r9, [lr, #12]
 1626 0284 5661     		str	r6, [r2, #20]
 1627 0286 1661     		str	r6, [r2, #16]
 1628 0288 1561     		str	r5, [r2, #16]
 1629 028a C2F81080 		str	r8, [r2, #16]
 1630 028e 5561     		str	r5, [r2, #20]
 1631 0290 CEF80CA0 		str	r10, [lr, #12]
 1632 0294 5661     		str	r6, [r2, #20]
 1633 0296 1661     		str	r6, [r2, #16]
 1634 0298 1561     		str	r5, [r2, #16]
 282:HARDWARE/LCD/ILI93xx.c **** 		}	
 1635              		.loc 1 282 0
 1636 029a C2F81080 		str	r8, [r2, #16]
 1637 029e 5561     		str	r5, [r2, #20]
 1638 02a0 CEF80C00 		str	r0, [lr, #12]
 1639 02a4 5661     		str	r6, [r2, #20]
 1640 02a6 1661     		str	r6, [r2, #16]
 1641 02a8 1561     		str	r5, [r2, #16]
 1642 02aa C2F81080 		str	r8, [r2, #16]
 1643 02ae 5561     		str	r5, [r2, #20]
 1644 02b0 CEF80C40 		str	r4, [lr, #12]
 1645 02b4 5661     		str	r6, [r2, #20]
 1646 02b6 1661     		str	r6, [r2, #16]
 1647 02b8 1561     		str	r5, [r2, #16]
 1648 02ba 92E7     		b	.L64
 1649              	.L75:
 1650              		.align	2
 1651              	.L74:
 1652 02bc 00100140 		.word	1073811456
 1653 02c0 000C0140 		.word	1073810432
 1654              		.cfi_endproc
 1655              	.LFE44:
 1657              		.section	.text.LCD_ReadPoint,"ax",%progbits
 1658              		.align	1
 1659              		.p2align 2,,3
 1660              		.global	LCD_ReadPoint
 1661              		.syntax unified
 1662              		.thumb
 1663              		.thumb_func
 1664              		.fpu softvfp
ARM GAS  C:\Users\czsta\AppData\Local\Temp\ccqYu3W2.s 			page 40


 1666              	LCD_ReadPoint:
 1667              	.LFB41:
 185:HARDWARE/LCD/ILI93xx.c ****  	u16 r=0,g=0,b=0;
 1668              		.loc 1 185 0
 1669              		.cfi_startproc
 1670              		@ args = 0, pretend = 0, frame = 0
 1671              		@ frame_needed = 0, uses_anonymous_args = 0
 1672              	.LVL62:
 1673 0000 2DE9F041 		push	{r4, r5, r6, r7, r8, lr}
 1674              	.LCFI23:
 1675              		.cfi_def_cfa_offset 24
 1676              		.cfi_offset 4, -24
 1677              		.cfi_offset 5, -20
 1678              		.cfi_offset 6, -16
 1679              		.cfi_offset 7, -12
 1680              		.cfi_offset 8, -8
 1681              		.cfi_offset 14, -4
 187:HARDWARE/LCD/ILI93xx.c **** 	LCD_SetCursor(x,y);
 1682              		.loc 1 187 0
 1683 0004 734C     		ldr	r4, .L101
 1684 0006 2388     		ldrh	r3, [r4]
 1685 0008 8342     		cmp	r3, r0
 1686 000a 02D9     		bls	.L91
 187:HARDWARE/LCD/ILI93xx.c **** 	LCD_SetCursor(x,y);
 1687              		.loc 1 187 0 is_stmt 0 discriminator 2
 1688 000c 6388     		ldrh	r3, [r4, #2]
 1689 000e 8B42     		cmp	r3, r1
 1690 0010 02D8     		bhi	.L97
 1691              	.L91:
 187:HARDWARE/LCD/ILI93xx.c **** 	LCD_SetCursor(x,y);
 1692              		.loc 1 187 0
 1693 0012 0020     		movs	r0, #0
 1694              	.LVL63:
 1695              	.L93:
 237:HARDWARE/LCD/ILI93xx.c **** //LCD开启显示
 1696              		.loc 1 237 0 is_stmt 1
 1697 0014 BDE8F081 		pop	{r4, r5, r6, r7, r8, pc}
 1698              	.LVL64:
 1699              	.L97:
 188:HARDWARE/LCD/ILI93xx.c **** 	if(lcddev.id==0X9341||lcddev.id==0X6804||lcddev.id==0X5310||lcddev.id==0X1963)LCD_WR_REG(0X2E);//9
 1700              		.loc 1 188 0
 1701 0018 FFF7FEFF 		bl	LCD_SetCursor
 1702              	.LVL65:
 189:HARDWARE/LCD/ILI93xx.c **** 	else if(lcddev.id==0X5510)LCD_WR_REG(0X2E00);	//5510 发送读GRAM指令
 1703              		.loc 1 189 0
 1704 001c 49F24133 		movw	r3, #37697
 1705 0020 A288     		ldrh	r2, [r4, #4]
 1706 0022 9A42     		cmp	r2, r3
 1707 0024 38D0     		beq	.L78
 189:HARDWARE/LCD/ILI93xx.c **** 	else if(lcddev.id==0X5510)LCD_WR_REG(0X2E00);	//5510 发送读GRAM指令
 1708              		.loc 1 189 0 is_stmt 0 discriminator 2
 1709 0026 46F60403 		movw	r3, #26628
 1710 002a 9A42     		cmp	r2, r3
 1711 002c 34D0     		beq	.L78
 189:HARDWARE/LCD/ILI93xx.c **** 	else if(lcddev.id==0X5510)LCD_WR_REG(0X2E00);	//5510 发送读GRAM指令
 1712              		.loc 1 189 0 discriminator 4
 1713 002e 45F21033 		movw	r3, #21264
ARM GAS  C:\Users\czsta\AppData\Local\Temp\ccqYu3W2.s 			page 41


 1714 0032 9A42     		cmp	r2, r3
 1715 0034 30D0     		beq	.L78
 189:HARDWARE/LCD/ILI93xx.c **** 	else if(lcddev.id==0X5510)LCD_WR_REG(0X2E00);	//5510 发送读GRAM指令
 1716              		.loc 1 189 0 discriminator 6
 1717 0036 41F66313 		movw	r3, #6499
 1718 003a 9A42     		cmp	r2, r3
 1719 003c 2CD0     		beq	.L78
 190:HARDWARE/LCD/ILI93xx.c **** 	else LCD_WR_REG(0X22);      		 			//其他IC发送读GRAM指令
 1720              		.loc 1 190 0 is_stmt 1
 1721 003e 45F21053 		movw	r3, #21776
 1722 0042 9A42     		cmp	r2, r3
 1723              	.LVL66:
 1724              	.LBB2478:
 1725              	.LBB2479:
  94:HARDWARE/LCD/ILI93xx.c **** 	DATAOUT(data); 
 1726              		.loc 1 94 0
 1727 0044 4FF40071 		mov	r1, #512
 1728              	.LBE2479:
 1729              	.LBE2478:
 1730              	.LBB2481:
 1731              	.LBB2482:
  96:HARDWARE/LCD/ILI93xx.c **** 	LCD_WR_SET; 
 1732              		.loc 1 96 0
 1733 0048 4FF08000 		mov	r0, #128
 1734              	.LBE2482:
 1735              	.LBE2481:
 1736              	.LBB2488:
 1737              	.LBB2480:
  93:HARDWARE/LCD/ILI93xx.c ****  	LCD_CS_CLR; 
 1738              		.loc 1 93 0
 1739 004c 4FF48076 		mov	r6, #256
  95:HARDWARE/LCD/ILI93xx.c **** 	LCD_WR_CLR; 
 1740              		.loc 1 95 0
 1741 0050 0CBF     		ite	eq
 1742 0052 4FF43855 		moveq	r5, #11776
 1743              	.LVL67:
 1744              	.LBE2480:
 1745              	.LBE2488:
 1746              	.LBB2489:
 1747              	.LBB2483:
 1748 0056 2225     		movne	r5, #34
  93:HARDWARE/LCD/ILI93xx.c ****  	LCD_CS_CLR; 
 1749              		.loc 1 93 0
 1750 0058 5F4B     		ldr	r3, .L101+4
  95:HARDWARE/LCD/ILI93xx.c **** 	LCD_WR_CLR; 
 1751              		.loc 1 95 0
 1752 005a 604C     		ldr	r4, .L101+8
  93:HARDWARE/LCD/ILI93xx.c ****  	LCD_CS_CLR; 
 1753              		.loc 1 93 0
 1754 005c 5E61     		str	r6, [r3, #20]
 1755              	.LBE2483:
 1756              	.LBE2489:
 194:HARDWARE/LCD/ILI93xx.c **** 
 1757              		.loc 1 194 0
 1758 005e 4FF6FF77 		movw	r7, #65535
 1759              	.LBB2490:
 1760              	.LBB2484:
ARM GAS  C:\Users\czsta\AppData\Local\Temp\ccqYu3W2.s 			page 42


  94:HARDWARE/LCD/ILI93xx.c **** 	DATAOUT(data); 
 1761              		.loc 1 94 0
 1762 0062 5961     		str	r1, [r3, #20]
 1763              	.LBE2484:
 1764              	.LBE2490:
 196:HARDWARE/LCD/ILI93xx.c **** 	LCD_CS_CLR;	    
 1765              		.loc 1 196 0
 1766 0064 4FF48076 		mov	r6, #256
 1767              	.LBB2491:
 1768              	.LBB2485:
  95:HARDWARE/LCD/ILI93xx.c **** 	LCD_WR_CLR; 
 1769              		.loc 1 95 0
 1770 0068 E560     		str	r5, [r4, #12]
  96:HARDWARE/LCD/ILI93xx.c **** 	LCD_WR_SET; 
 1771              		.loc 1 96 0
 1772 006a 5861     		str	r0, [r3, #20]
 1773              	.LBE2485:
 1774              	.LBE2491:
 199:HARDWARE/LCD/ILI93xx.c **** 	opt_delay(2);									//延时		
 1775              		.loc 1 199 0
 1776 006c 4024     		movs	r4, #64
 1777              	.LBB2492:
 1778              	.LBB2486:
  97:HARDWARE/LCD/ILI93xx.c ****  	LCD_CS_SET;   
 1779              		.loc 1 97 0
 1780 006e 1861     		str	r0, [r3, #16]
 1781              	.LBE2486:
 1782              	.LBE2492:
 197:HARDWARE/LCD/ILI93xx.c **** 	//读取数据(读GRAM时,第一次为假读)	
 1783              		.loc 1 197 0
 1784 0070 4FF40075 		mov	r5, #512
 192:HARDWARE/LCD/ILI93xx.c **** 	GPIOB->CRH=0X88888888; 							//PB8-15 上拉输入
 1785              		.loc 1 192 0
 1786 0074 4FF08830 		mov	r0, #-2004318072
 1787              	.LBB2493:
 1788              	.LBB2487:
  98:HARDWARE/LCD/ILI93xx.c **** }
 1789              		.loc 1 98 0
 1790 0078 1961     		str	r1, [r3, #16]
 1791              	.LBE2487:
 1792              	.LBE2493:
 196:HARDWARE/LCD/ILI93xx.c **** 	LCD_CS_CLR;	    
 1793              		.loc 1 196 0
 1794 007a 574B     		ldr	r3, .L101+4
 192:HARDWARE/LCD/ILI93xx.c **** 	GPIOB->CRH=0X88888888; 							//PB8-15 上拉输入
 1795              		.loc 1 192 0
 1796 007c 5749     		ldr	r1, .L101+8
 1797 007e 0860     		str	r0, [r1]
 193:HARDWARE/LCD/ILI93xx.c **** 	GPIOB->ODR=0XFFFF;     							//全部输出高
 1798              		.loc 1 193 0
 1799 0080 4860     		str	r0, [r1, #4]
 194:HARDWARE/LCD/ILI93xx.c **** 
 1800              		.loc 1 194 0
 1801 0082 CF60     		str	r7, [r1, #12]
 196:HARDWARE/LCD/ILI93xx.c **** 	LCD_CS_CLR;	    
 1802              		.loc 1 196 0
 1803 0084 1E61     		str	r6, [r3, #16]
ARM GAS  C:\Users\czsta\AppData\Local\Temp\ccqYu3W2.s 			page 43


 197:HARDWARE/LCD/ILI93xx.c **** 	//读取数据(读GRAM时,第一次为假读)	
 1804              		.loc 1 197 0
 1805 0086 5D61     		str	r5, [r3, #20]
 199:HARDWARE/LCD/ILI93xx.c **** 	opt_delay(2);									//延时		
 1806              		.loc 1 199 0
 1807 0088 5C61     		str	r4, [r3, #20]
 201:HARDWARE/LCD/ILI93xx.c **** 	LCD_RD_SET;
 1808              		.loc 1 201 0
 1809 008a 8868     		ldr	r0, [r1, #8]
 1810              	.LVL68:
 202:HARDWARE/LCD/ILI93xx.c **** 	if(lcddev.id==0X1963)
 1811              		.loc 1 202 0
 1812 008c 1C61     		str	r4, [r3, #16]
 212:HARDWARE/LCD/ILI93xx.c **** 	opt_delay(2);//延时					   
 1813              		.loc 1 212 0
 1814 008e 5C61     		str	r4, [r3, #20]
 214:HARDWARE/LCD/ILI93xx.c **** 	LCD_RD_SET;
 1815              		.loc 1 214 0
 1816 0090 8868     		ldr	r0, [r1, #8]
 215:HARDWARE/LCD/ILI93xx.c ****  	if(lcddev.id==0X9341||lcddev.id==0X5310||lcddev.id==0X5510)	//9341/NT35310/NT35510要分2次读
 1817              		.loc 1 215 0
 1818 0092 1C61     		str	r4, [r3, #16]
 214:HARDWARE/LCD/ILI93xx.c **** 	LCD_RD_SET;
 1819              		.loc 1 214 0
 1820 0094 80B2     		uxth	r0, r0
 1821              	.LVL69:
 1822 0096 29E0     		b	.L89
 1823              	.LVL70:
 1824              	.L78:
 1825              	.LBB2494:
 1826              	.LBB2495:
  93:HARDWARE/LCD/ILI93xx.c ****  	LCD_CS_CLR; 
 1827              		.loc 1 93 0
 1828 0098 4FF48070 		mov	r0, #256
  94:HARDWARE/LCD/ILI93xx.c **** 	DATAOUT(data); 
 1829              		.loc 1 94 0
 1830 009c 4FF40074 		mov	r4, #512
  96:HARDWARE/LCD/ILI93xx.c **** 	LCD_WR_SET; 
 1831              		.loc 1 96 0
 1832 00a0 8027     		movs	r7, #128
 1833              	.LBE2495:
 1834              	.LBE2494:
 192:HARDWARE/LCD/ILI93xx.c **** 	GPIOB->CRH=0X88888888; 							//PB8-15 上拉输入
 1835              		.loc 1 192 0
 1836 00a2 4FF08836 		mov	r6, #-2004318072
 199:HARDWARE/LCD/ILI93xx.c **** 	opt_delay(2);									//延时		
 1837              		.loc 1 199 0
 1838 00a6 4025     		movs	r5, #64
 1839              	.LBB2499:
 1840              	.LBB2496:
  95:HARDWARE/LCD/ILI93xx.c **** 	LCD_WR_CLR; 
 1841              		.loc 1 95 0
 1842 00a8 4FF02E08 		mov	r8, #46
 1843              	.LBE2496:
 1844              	.LBE2499:
 194:HARDWARE/LCD/ILI93xx.c **** 
 1845              		.loc 1 194 0
ARM GAS  C:\Users\czsta\AppData\Local\Temp\ccqYu3W2.s 			page 44


 1846 00ac 4FF6FF7C 		movw	ip, #65535
 203:HARDWARE/LCD/ILI93xx.c **** 	{
 1847              		.loc 1 203 0
 1848 00b0 41F6631E 		movw	lr, #6499
 1849              	.LBB2500:
 1850              	.LBB2497:
  93:HARDWARE/LCD/ILI93xx.c ****  	LCD_CS_CLR; 
 1851              		.loc 1 93 0
 1852 00b4 484B     		ldr	r3, .L101+4
  95:HARDWARE/LCD/ILI93xx.c **** 	LCD_WR_CLR; 
 1853              		.loc 1 95 0
 1854 00b6 4949     		ldr	r1, .L101+8
  93:HARDWARE/LCD/ILI93xx.c ****  	LCD_CS_CLR; 
 1855              		.loc 1 93 0
 1856 00b8 5861     		str	r0, [r3, #20]
 1857              	.LBE2497:
 1858              	.LBE2500:
 203:HARDWARE/LCD/ILI93xx.c **** 	{
 1859              		.loc 1 203 0
 1860 00ba 7245     		cmp	r2, lr
 1861              	.LBB2501:
 1862              	.LBB2498:
  94:HARDWARE/LCD/ILI93xx.c **** 	DATAOUT(data); 
 1863              		.loc 1 94 0
 1864 00bc 5C61     		str	r4, [r3, #20]
  95:HARDWARE/LCD/ILI93xx.c **** 	LCD_WR_CLR; 
 1865              		.loc 1 95 0
 1866 00be C1F80C80 		str	r8, [r1, #12]
  96:HARDWARE/LCD/ILI93xx.c **** 	LCD_WR_SET; 
 1867              		.loc 1 96 0
 1868 00c2 5F61     		str	r7, [r3, #20]
  97:HARDWARE/LCD/ILI93xx.c ****  	LCD_CS_SET;   
 1869              		.loc 1 97 0
 1870 00c4 1F61     		str	r7, [r3, #16]
  98:HARDWARE/LCD/ILI93xx.c **** }
 1871              		.loc 1 98 0
 1872 00c6 1C61     		str	r4, [r3, #16]
 1873              	.LBE2498:
 1874              	.LBE2501:
 192:HARDWARE/LCD/ILI93xx.c **** 	GPIOB->CRH=0X88888888; 							//PB8-15 上拉输入
 1875              		.loc 1 192 0
 1876 00c8 0E60     		str	r6, [r1]
 193:HARDWARE/LCD/ILI93xx.c **** 	GPIOB->ODR=0XFFFF;     							//全部输出高
 1877              		.loc 1 193 0
 1878 00ca 4E60     		str	r6, [r1, #4]
 194:HARDWARE/LCD/ILI93xx.c **** 
 1879              		.loc 1 194 0
 1880 00cc C1F80CC0 		str	ip, [r1, #12]
 196:HARDWARE/LCD/ILI93xx.c **** 	LCD_CS_CLR;	    
 1881              		.loc 1 196 0
 1882 00d0 1861     		str	r0, [r3, #16]
 197:HARDWARE/LCD/ILI93xx.c **** 	//读取数据(读GRAM时,第一次为假读)	
 1883              		.loc 1 197 0
 1884 00d2 5C61     		str	r4, [r3, #20]
 199:HARDWARE/LCD/ILI93xx.c **** 	opt_delay(2);									//延时		
 1885              		.loc 1 199 0
 1886 00d4 5D61     		str	r5, [r3, #20]
ARM GAS  C:\Users\czsta\AppData\Local\Temp\ccqYu3W2.s 			page 45


 201:HARDWARE/LCD/ILI93xx.c **** 	LCD_RD_SET;
 1887              		.loc 1 201 0
 1888 00d6 8868     		ldr	r0, [r1, #8]
 1889              	.LVL71:
 202:HARDWARE/LCD/ILI93xx.c **** 	if(lcddev.id==0X1963)
 1890              		.loc 1 202 0
 1891 00d8 1D61     		str	r5, [r3, #16]
 203:HARDWARE/LCD/ILI93xx.c **** 	{
 1892              		.loc 1 203 0
 1893 00da 54D0     		beq	.L98
 1894              	.LVL72:
 216:HARDWARE/LCD/ILI93xx.c **** 	{	 
 1895              		.loc 1 216 0
 1896 00dc 49F24134 		movw	r4, #37697
 212:HARDWARE/LCD/ILI93xx.c **** 	opt_delay(2);//延时					   
 1897              		.loc 1 212 0
 1898 00e0 5D61     		str	r5, [r3, #20]
 214:HARDWARE/LCD/ILI93xx.c **** 	LCD_RD_SET;
 1899              		.loc 1 214 0
 1900 00e2 8868     		ldr	r0, [r1, #8]
 216:HARDWARE/LCD/ILI93xx.c **** 	{	 
 1901              		.loc 1 216 0
 1902 00e4 A242     		cmp	r2, r4
 215:HARDWARE/LCD/ILI93xx.c ****  	if(lcddev.id==0X9341||lcddev.id==0X5310||lcddev.id==0X5510)	//9341/NT35310/NT35510要分2次读
 1903              		.loc 1 215 0
 1904 00e6 1D61     		str	r5, [r3, #16]
 214:HARDWARE/LCD/ILI93xx.c **** 	LCD_RD_SET;
 1905              		.loc 1 214 0
 1906 00e8 80B2     		uxth	r0, r0
 1907              	.LVL73:
 216:HARDWARE/LCD/ILI93xx.c **** 	{	 
 1908              		.loc 1 216 0
 1909 00ea 0FD0     		beq	.L84
 1910              	.LVL74:
 1911              	.L89:
 216:HARDWARE/LCD/ILI93xx.c **** 	{	 
 1912              		.loc 1 216 0 is_stmt 0 discriminator 1
 1913 00ec 45F21033 		movw	r3, #21264
 1914 00f0 9A42     		cmp	r2, r3
 1915 00f2 0BD0     		beq	.L84
 216:HARDWARE/LCD/ILI93xx.c **** 	{	 
 1916              		.loc 1 216 0 discriminator 2
 1917 00f4 45F21053 		movw	r3, #21776
 1918 00f8 9A42     		cmp	r2, r3
 1919 00fa 07D0     		beq	.L84
 224:HARDWARE/LCD/ILI93xx.c **** 	{
 1920              		.loc 1 224 0 is_stmt 1
 1921 00fc 46F60403 		movw	r3, #26628
 1922 0100 9A42     		cmp	r2, r3
 1923 0102 49D0     		beq	.L99
 186:HARDWARE/LCD/ILI93xx.c **** 	if(x>=lcddev.width||y>=lcddev.height)return 0;	//超过了范围,直接返回		   
 1924              		.loc 1 186 0
 1925 0104 4FF0000C 		mov	ip, #0
 1926 0108 6146     		mov	r1, ip
 1927 010a 09E0     		b	.L86
 1928              	.L84:
 218:HARDWARE/LCD/ILI93xx.c **** 		opt_delay(2);//延时			   
ARM GAS  C:\Users\czsta\AppData\Local\Temp\ccqYu3W2.s 			page 46


 1929              		.loc 1 218 0
 1930 010c 4024     		movs	r4, #64
 1931 010e 3249     		ldr	r1, .L101+4
 220:HARDWARE/LCD/ILI93xx.c **** 	 	LCD_RD_SET;
 1932              		.loc 1 220 0
 1933 0110 324B     		ldr	r3, .L101+8
 218:HARDWARE/LCD/ILI93xx.c **** 		opt_delay(2);//延时			   
 1934              		.loc 1 218 0
 1935 0112 4C61     		str	r4, [r1, #20]
 220:HARDWARE/LCD/ILI93xx.c **** 	 	LCD_RD_SET;
 1936              		.loc 1 220 0
 1937 0114 9D68     		ldr	r5, [r3, #8]
 1938 0116 0302     		lsls	r3, r0, #8
 221:HARDWARE/LCD/ILI93xx.c **** 		g=r&0XFF;//对于9341,第一次读取的是RG的值,R在前,G在后,各占8位
 1939              		.loc 1 221 0
 1940 0118 0C61     		str	r4, [r1, #16]
 220:HARDWARE/LCD/ILI93xx.c **** 	 	LCD_RD_SET;
 1941              		.loc 1 220 0
 1942 011a 1FFA85FC 		uxth	ip, r5
 1943              	.LVL75:
 1944 011e 99B2     		uxth	r1, r3
 1945              	.LVL76:
 1946              	.L86:
 230:HARDWARE/LCD/ILI93xx.c **** 	GPIOB->CRL=0X33333333; 		//PB0-7  上拉输出
 1947              		.loc 1 230 0
 1948 0120 4FF40077 		mov	r7, #512
 234:HARDWARE/LCD/ILI93xx.c **** 	else if(lcddev.id==0X9341||lcddev.id==0X5310||lcddev.id==0X5510)return (((r>>11)<<11)|((g>>10)<<5)
 1949              		.loc 1 234 0
 1950 0124 49F22535 		movw	r5, #37669
 231:HARDWARE/LCD/ILI93xx.c **** 	GPIOB->CRH=0X33333333; 		//PB8-15 上拉输出
 1951              		.loc 1 231 0
 1952 0128 4FF03334 		mov	r4, #858993459
 233:HARDWARE/LCD/ILI93xx.c **** 	if(lcddev.id==0X9325||lcddev.id==0X4535||lcddev.id==0X4531||lcddev.id==0X8989||lcddev.id==0XB505)r
 1953              		.loc 1 233 0
 1954 012c 4FF6FF76 		movw	r6, #65535
 230:HARDWARE/LCD/ILI93xx.c **** 	GPIOB->CRL=0X33333333; 		//PB0-7  上拉输出
 1955              		.loc 1 230 0
 1956 0130 294B     		ldr	r3, .L101+4
 234:HARDWARE/LCD/ILI93xx.c **** 	else if(lcddev.id==0X9341||lcddev.id==0X5310||lcddev.id==0X5510)return (((r>>11)<<11)|((g>>10)<<5)
 1957              		.loc 1 234 0
 1958 0132 AA42     		cmp	r2, r5
 230:HARDWARE/LCD/ILI93xx.c **** 	GPIOB->CRL=0X33333333; 		//PB0-7  上拉输出
 1959              		.loc 1 230 0
 1960 0134 1F61     		str	r7, [r3, #16]
 231:HARDWARE/LCD/ILI93xx.c **** 	GPIOB->CRH=0X33333333; 		//PB8-15 上拉输出
 1961              		.loc 1 231 0
 1962 0136 A3F58063 		sub	r3, r3, #1024
 1963 013a 1C60     		str	r4, [r3]
 232:HARDWARE/LCD/ILI93xx.c **** 	GPIOB->ODR=0XFFFF;    		//全部输出高  
 1964              		.loc 1 232 0
 1965 013c 5C60     		str	r4, [r3, #4]
 233:HARDWARE/LCD/ILI93xx.c **** 	if(lcddev.id==0X9325||lcddev.id==0X4535||lcddev.id==0X4531||lcddev.id==0X8989||lcddev.id==0XB505)r
 1966              		.loc 1 233 0
 1967 013e DE60     		str	r6, [r3, #12]
 234:HARDWARE/LCD/ILI93xx.c **** 	else if(lcddev.id==0X9341||lcddev.id==0X5310||lcddev.id==0X5510)return (((r>>11)<<11)|((g>>10)<<5)
 1968              		.loc 1 234 0
 1969 0140 3FF468AF 		beq	.L93
ARM GAS  C:\Users\czsta\AppData\Local\Temp\ccqYu3W2.s 			page 47


 234:HARDWARE/LCD/ILI93xx.c **** 	else if(lcddev.id==0X9341||lcddev.id==0X5310||lcddev.id==0X5510)return (((r>>11)<<11)|((g>>10)<<5)
 1970              		.loc 1 234 0 is_stmt 0 discriminator 4
 1971 0144 44F23153 		movw	r3, #17713
 1972 0148 22F00404 		bic	r4, r2, #4
 1973 014c 9C42     		cmp	r4, r3
 1974 014e 3FF461AF 		beq	.L93
 234:HARDWARE/LCD/ILI93xx.c **** 	else if(lcddev.id==0X9341||lcddev.id==0X5310||lcddev.id==0X5510)return (((r>>11)<<11)|((g>>10)<<5)
 1975              		.loc 1 234 0 discriminator 6
 1976 0152 48F68913 		movw	r3, #35209
 1977 0156 9A42     		cmp	r2, r3
 1978 0158 3FF45CAF 		beq	.L93
 234:HARDWARE/LCD/ILI93xx.c **** 	else if(lcddev.id==0X9341||lcddev.id==0X5310||lcddev.id==0X5510)return (((r>>11)<<11)|((g>>10)<<5)
 1979              		.loc 1 234 0 discriminator 8
 1980 015c 4BF20553 		movw	r3, #46341
 1981 0160 9A42     		cmp	r2, r3
 1982 0162 3FF457AF 		beq	.L93
 235:HARDWARE/LCD/ILI93xx.c **** 	else return LCD_BGR2RGB(r);	//其他IC
 1983              		.loc 1 235 0 is_stmt 1
 1984 0166 49F24133 		movw	r3, #37697
 1985 016a 9A42     		cmp	r2, r3
 1986 016c 03D0     		beq	.L88
 235:HARDWARE/LCD/ILI93xx.c **** 	else return LCD_BGR2RGB(r);	//其他IC
 1987              		.loc 1 235 0 is_stmt 0 discriminator 2
 1988 016e 45F21033 		movw	r3, #21264
 1989 0172 9A42     		cmp	r2, r3
 1990 0174 29D1     		bne	.L100
 1991              	.L88:
 235:HARDWARE/LCD/ILI93xx.c **** 	else return LCD_BGR2RGB(r);	//其他IC
 1992              		.loc 1 235 0 discriminator 5
 1993 0176 00F47840 		and	r0, r0, #63488
 1994              	.LVL77:
 1995 017a 40EADC20 		orr	r0, r0, ip, lsr #11
 1996 017e 8B0A     		lsrs	r3, r1, #10
 1997 0180 40EA4310 		orr	r0, r0, r3, lsl #5
 1998 0184 46E7     		b	.L93
 1999              	.LVL78:
 2000              	.L98:
 206:HARDWARE/LCD/ILI93xx.c **** 		GPIOB->CRH=0X33333333; 		//PB8-15 上拉输出
 2001              		.loc 1 206 0 is_stmt 1
 2002 0186 4FF03332 		mov	r2, #858993459
 205:HARDWARE/LCD/ILI93xx.c **** 		GPIOB->CRL=0X33333333; 		//PB0-7  上拉输出
 2003              		.loc 1 205 0
 2004 018a 1C61     		str	r4, [r3, #16]
 201:HARDWARE/LCD/ILI93xx.c **** 	LCD_RD_SET;
 2005              		.loc 1 201 0
 2006 018c 80B2     		uxth	r0, r0
 206:HARDWARE/LCD/ILI93xx.c **** 		GPIOB->CRH=0X33333333; 		//PB8-15 上拉输出
 2007              		.loc 1 206 0
 2008 018e 0A60     		str	r2, [r1]
 207:HARDWARE/LCD/ILI93xx.c **** 		GPIOB->ODR=0XFFFF;    		//全部输出高  
 2009              		.loc 1 207 0
 2010 0190 4A60     		str	r2, [r1, #4]
 208:HARDWARE/LCD/ILI93xx.c **** 		return r;					//1963直接读就可以 
 2011              		.loc 1 208 0
 2012 0192 C1F80CC0 		str	ip, [r1, #12]
 209:HARDWARE/LCD/ILI93xx.c ****  	}
 2013              		.loc 1 209 0
ARM GAS  C:\Users\czsta\AppData\Local\Temp\ccqYu3W2.s 			page 48


 2014 0196 3DE7     		b	.L93
 2015              	.LVL79:
 2016              	.L99:
 226:HARDWARE/LCD/ILI93xx.c **** 	 	LCD_RD_SET;
 2017              		.loc 1 226 0
 2018 0198 4020     		movs	r0, #64
 2019              	.LVL80:
 231:HARDWARE/LCD/ILI93xx.c **** 	GPIOB->CRH=0X33333333; 		//PB8-15 上拉输出
 2020              		.loc 1 231 0
 2021 019a 4FF03331 		mov	r1, #858993459
 230:HARDWARE/LCD/ILI93xx.c **** 	GPIOB->CRL=0X33333333; 		//PB0-7  上拉输出
 2022              		.loc 1 230 0
 2023 019e 4FF40075 		mov	r5, #512
 233:HARDWARE/LCD/ILI93xx.c **** 	if(lcddev.id==0X9325||lcddev.id==0X4535||lcddev.id==0X4531||lcddev.id==0X8989||lcddev.id==0XB505)r
 2024              		.loc 1 233 0
 2025 01a2 4FF6FF74 		movw	r4, #65535
 226:HARDWARE/LCD/ILI93xx.c **** 	 	LCD_RD_SET;
 2026              		.loc 1 226 0
 2027 01a6 0C4A     		ldr	r2, .L101+4
 228:HARDWARE/LCD/ILI93xx.c **** 	}	 
 2028              		.loc 1 228 0
 2029 01a8 0C4B     		ldr	r3, .L101+8
 226:HARDWARE/LCD/ILI93xx.c **** 	 	LCD_RD_SET;
 2030              		.loc 1 226 0
 2031 01aa 5061     		str	r0, [r2, #20]
 227:HARDWARE/LCD/ILI93xx.c **** 		r=DATAIN;//6804第二次读取的才是真实值 
 2032              		.loc 1 227 0
 2033 01ac 1061     		str	r0, [r2, #16]
 228:HARDWARE/LCD/ILI93xx.c **** 	}	 
 2034              		.loc 1 228 0
 2035 01ae 9868     		ldr	r0, [r3, #8]
 230:HARDWARE/LCD/ILI93xx.c **** 	GPIOB->CRL=0X33333333; 		//PB0-7  上拉输出
 2036              		.loc 1 230 0
 2037 01b0 1561     		str	r5, [r2, #16]
 228:HARDWARE/LCD/ILI93xx.c **** 	}	 
 2038              		.loc 1 228 0
 2039 01b2 80B2     		uxth	r0, r0
 2040              	.LVL81:
 231:HARDWARE/LCD/ILI93xx.c **** 	GPIOB->CRH=0X33333333; 		//PB8-15 上拉输出
 2041              		.loc 1 231 0
 2042 01b4 1960     		str	r1, [r3]
 232:HARDWARE/LCD/ILI93xx.c **** 	GPIOB->ODR=0XFFFF;    		//全部输出高  
 2043              		.loc 1 232 0
 2044 01b6 5960     		str	r1, [r3, #4]
 233:HARDWARE/LCD/ILI93xx.c **** 	if(lcddev.id==0X9325||lcddev.id==0X4535||lcddev.id==0X4531||lcddev.id==0X8989||lcddev.id==0XB505)r
 2045              		.loc 1 233 0
 2046 01b8 DC60     		str	r4, [r3, #12]
 2047              	.LVL82:
 2048              	.L87:
 2049              	.LBB2502:
 2050              	.LBB2503:
 172:HARDWARE/LCD/ILI93xx.c **** 	return(rgb);
 2051              		.loc 1 172 0
 2052 01ba C302     		lsls	r3, r0, #11
 2053 01bc 03EBD023 		add	r3, r3, r0, lsr #11
 2054 01c0 00F4FC60 		and	r0, r0, #2016
 2055              	.LVL83:
ARM GAS  C:\Users\czsta\AppData\Local\Temp\ccqYu3W2.s 			page 49


 2056 01c4 1844     		add	r0, r0, r3
 2057 01c6 80B2     		uxth	r0, r0
 2058              	.LBE2503:
 2059              	.LBE2502:
 236:HARDWARE/LCD/ILI93xx.c **** }		 
 2060              		.loc 1 236 0
 2061 01c8 24E7     		b	.L93
 2062              	.LVL84:
 2063              	.L100:
 235:HARDWARE/LCD/ILI93xx.c **** 	else return LCD_BGR2RGB(r);	//其他IC
 2064              		.loc 1 235 0 discriminator 4
 2065 01ca 45F21053 		movw	r3, #21776
 2066 01ce 9A42     		cmp	r2, r3
 2067 01d0 D1D0     		beq	.L88
 2068 01d2 F2E7     		b	.L87
 2069              	.L102:
 2070              		.align	2
 2071              	.L101:
 2072 01d4 00000000 		.word	lcddev
 2073 01d8 00100140 		.word	1073811456
 2074 01dc 000C0140 		.word	1073810432
 2075              		.cfi_endproc
 2076              	.LFE41:
 2078              		.section	.text.LCD_Scan_Dir,"ax",%progbits
 2079              		.align	1
 2080              		.p2align 2,,3
 2081              		.global	LCD_Scan_Dir
 2082              		.syntax unified
 2083              		.thumb
 2084              		.thumb_func
 2085              		.fpu softvfp
 2087              	LCD_Scan_Dir:
 2088              	.LFB45:
 301:HARDWARE/LCD/ILI93xx.c **** //设置LCD的自动扫描方向
 302:HARDWARE/LCD/ILI93xx.c **** //注意:其他函数可能会受到此函数设置的影响(尤其是9341/6804这两个奇葩),
 303:HARDWARE/LCD/ILI93xx.c **** //所以,一般设置为L2R_U2D即可,如果设置为其他扫描方式,可能导致显示不正常
 304:HARDWARE/LCD/ILI93xx.c **** //dir:0~7,代表8个方向(具体定义见lcd.h)
 305:HARDWARE/LCD/ILI93xx.c **** //9320/9325/9328/4531/4535/1505/b505/5408/9341/5310/5510/1963等IC已经实际测试	   	   
 306:HARDWARE/LCD/ILI93xx.c **** void LCD_Scan_Dir(u8 dir)
 307:HARDWARE/LCD/ILI93xx.c **** {
 2089              		.loc 1 307 0
 2090              		.cfi_startproc
 2091              		@ args = 0, pretend = 0, frame = 16
 2092              		@ frame_needed = 0, uses_anonymous_args = 0
 2093              	.LVL85:
 2094 0000 2DE9F04F 		push	{r4, r5, r6, r7, r8, r9, r10, fp, lr}
 2095              	.LCFI24:
 2096              		.cfi_def_cfa_offset 36
 2097              		.cfi_offset 4, -36
 2098              		.cfi_offset 5, -32
 2099              		.cfi_offset 6, -28
 2100              		.cfi_offset 7, -24
 2101              		.cfi_offset 8, -20
 2102              		.cfi_offset 9, -16
 2103              		.cfi_offset 10, -12
 2104              		.cfi_offset 11, -8
 2105              		.cfi_offset 14, -4
ARM GAS  C:\Users\czsta\AppData\Local\Temp\ccqYu3W2.s 			page 50


 308:HARDWARE/LCD/ILI93xx.c **** 	u16 regval=0;
 309:HARDWARE/LCD/ILI93xx.c **** 	u16 dirreg=0;
 310:HARDWARE/LCD/ILI93xx.c **** 	u16 temp;  
 311:HARDWARE/LCD/ILI93xx.c **** 	if((lcddev.dir==1&&lcddev.id!=0X6804&&lcddev.id!=0X1963)||(lcddev.dir==0&&lcddev.id==0X1963))//横
 2106              		.loc 1 311 0
 2107 0004 9F4A     		ldr	r2, .L154
 307:HARDWARE/LCD/ILI93xx.c **** 	u16 regval=0;
 2108              		.loc 1 307 0
 2109 0006 85B0     		sub	sp, sp, #20
 2110              	.LCFI25:
 2111              		.cfi_def_cfa_offset 56
 2112              		.loc 1 311 0
 2113 0008 9379     		ldrb	r3, [r2, #6]	@ zero_extendqisi2
 2114 000a 9188     		ldrh	r1, [r2, #4]
 2115 000c 012B     		cmp	r3, #1
 2116 000e 00F02781 		beq	.L148
 2117              		.loc 1 311 0 is_stmt 0 discriminator 5
 2118 0012 23B9     		cbnz	r3, .L108
 2119              		.loc 1 311 0 discriminator 6
 2120 0014 41F66313 		movw	r3, #6499
 2121 0018 9942     		cmp	r1, r3
 2122 001a 00F02A81 		beq	.L106
 2123              	.LVL86:
 2124              	.L108:
 312:HARDWARE/LCD/ILI93xx.c **** 	{			   
 313:HARDWARE/LCD/ILI93xx.c **** 		switch(dir)//方向转换
 314:HARDWARE/LCD/ILI93xx.c **** 		{
 315:HARDWARE/LCD/ILI93xx.c **** 			case 0:dir=6;break;
 316:HARDWARE/LCD/ILI93xx.c **** 			case 1:dir=7;break;
 317:HARDWARE/LCD/ILI93xx.c **** 			case 2:dir=4;break;
 318:HARDWARE/LCD/ILI93xx.c **** 			case 3:dir=5;break;
 319:HARDWARE/LCD/ILI93xx.c **** 			case 4:dir=1;break;
 320:HARDWARE/LCD/ILI93xx.c **** 			case 5:dir=0;break;
 321:HARDWARE/LCD/ILI93xx.c **** 			case 6:dir=3;break;
 322:HARDWARE/LCD/ILI93xx.c **** 			case 7:dir=2;break;	     
 323:HARDWARE/LCD/ILI93xx.c **** 		}
 324:HARDWARE/LCD/ILI93xx.c **** 	} 
 325:HARDWARE/LCD/ILI93xx.c **** 	if(lcddev.id==0x9341||lcddev.id==0X6804||lcddev.id==0X5310||lcddev.id==0X5510||lcddev.id==0X1963)/
 2125              		.loc 1 325 0 is_stmt 1
 2126 001e 49F24133 		movw	r3, #37697
 2127 0022 9942     		cmp	r1, r3
 2128 0024 36D0     		beq	.L118
 2129              		.loc 1 325 0 is_stmt 0 discriminator 1
 2130 0026 46F60403 		movw	r3, #26628
 2131 002a 9942     		cmp	r1, r3
 2132 002c 32D0     		beq	.L118
 2133              		.loc 1 325 0 discriminator 2
 2134 002e 45F21033 		movw	r3, #21264
 2135 0032 9942     		cmp	r1, r3
 2136 0034 00F09881 		beq	.L119
 2137              		.loc 1 325 0 discriminator 3
 2138 0038 45F21053 		movw	r3, #21776
 2139 003c 9942     		cmp	r1, r3
 2140 003e 00F08B81 		beq	.L107
 2141              		.loc 1 325 0 discriminator 4
 2142 0042 41F66313 		movw	r3, #6499
 2143 0046 9942     		cmp	r1, r3
ARM GAS  C:\Users\czsta\AppData\Local\Temp\ccqYu3W2.s 			page 51


 2144 0048 00F0A881 		beq	.L149
 2145 004c 0728     		cmp	r0, #7
 2146              	.LBB2504:
 2147              	.LBB2505:
 2148              	.LBB2506:
 2149              	.LBB2507:
  94:HARDWARE/LCD/ILI93xx.c **** 	DATAOUT(data); 
 2150              		.loc 1 94 0 is_stmt 1
 2151 004e 4FF40072 		mov	r2, #512
  96:HARDWARE/LCD/ILI93xx.c **** 	LCD_WR_SET; 
 2152              		.loc 1 96 0
 2153 0052 4FF08001 		mov	r1, #128
  93:HARDWARE/LCD/ILI93xx.c ****  	LCD_CS_CLR; 
 2154              		.loc 1 93 0
 2155 0056 4FF48074 		mov	r4, #256
 2156              	.LBE2507:
 2157              	.LBE2506:
 2158              	.LBE2505:
 2159              	.LBE2504:
 2160              		.loc 1 325 0
 2161 005a 88BF     		it	hi
 2162 005c 4FF48055 		movhi	r5, #4096
 2163              	.LVL87:
 2164              	.LBB2511:
 2165              	.LBB2510:
 2166              	.LBB2509:
 2167              	.LBB2508:
  95:HARDWARE/LCD/ILI93xx.c **** 	LCD_WR_CLR; 
 2168              		.loc 1 95 0
 2169 0060 4FF00306 		mov	r6, #3
 2170 0064 9CBF     		itt	ls
 2171 0066 884B     		ldrls	r3, .L154+4
 2172 0068 33F81050 		ldrhls	r5, [r3, r0, lsl #1]
  93:HARDWARE/LCD/ILI93xx.c ****  	LCD_CS_CLR; 
 2173              		.loc 1 93 0
 2174 006c 874B     		ldr	r3, .L154+8
  95:HARDWARE/LCD/ILI93xx.c **** 	LCD_WR_CLR; 
 2175              		.loc 1 95 0
 2176 006e 8848     		ldr	r0, .L154+12
 2177              	.LVL88:
 2178 0070 98BF     		it	ls
 2179 0072 45F48055 		orrls	r5, r5, #4096
  93:HARDWARE/LCD/ILI93xx.c ****  	LCD_CS_CLR; 
 2180              		.loc 1 93 0
 2181 0076 5C61     		str	r4, [r3, #20]
  94:HARDWARE/LCD/ILI93xx.c **** 	DATAOUT(data); 
 2182              		.loc 1 94 0
 2183 0078 5A61     		str	r2, [r3, #20]
  95:HARDWARE/LCD/ILI93xx.c **** 	LCD_WR_CLR; 
 2184              		.loc 1 95 0
 2185 007a C660     		str	r6, [r0, #12]
  96:HARDWARE/LCD/ILI93xx.c **** 	LCD_WR_SET; 
 2186              		.loc 1 96 0
 2187 007c 5961     		str	r1, [r3, #20]
  97:HARDWARE/LCD/ILI93xx.c ****  	LCD_CS_SET;   
 2188              		.loc 1 97 0
 2189 007e 1961     		str	r1, [r3, #16]
ARM GAS  C:\Users\czsta\AppData\Local\Temp\ccqYu3W2.s 			page 52


  98:HARDWARE/LCD/ILI93xx.c **** }
 2190              		.loc 1 98 0
 2191 0080 1A61     		str	r2, [r3, #16]
 2192              	.LVL89:
 2193              	.LBE2508:
 2194              	.LBE2509:
 141:HARDWARE/LCD/ILI93xx.c **** }   
 2195              		.loc 1 141 0
 2196 0082 1C61     		str	r4, [r3, #16]
 2197 0084 5A61     		str	r2, [r3, #20]
 2198 0086 C560     		str	r5, [r0, #12]
 2199 0088 5961     		str	r1, [r3, #20]
 2200 008a 1961     		str	r1, [r3, #16]
 2201 008c 1A61     		str	r2, [r3, #16]
 2202              	.LBE2510:
 2203              	.LBE2511:
 326:HARDWARE/LCD/ILI93xx.c **** 	{
 327:HARDWARE/LCD/ILI93xx.c **** 		switch(dir)
 328:HARDWARE/LCD/ILI93xx.c **** 		{
 329:HARDWARE/LCD/ILI93xx.c **** 			case L2R_U2D://从左到右,从上到下
 330:HARDWARE/LCD/ILI93xx.c **** 				regval|=(0<<7)|(0<<6)|(0<<5); 
 331:HARDWARE/LCD/ILI93xx.c **** 				break;
 332:HARDWARE/LCD/ILI93xx.c **** 			case L2R_D2U://从左到右,从下到上
 333:HARDWARE/LCD/ILI93xx.c **** 				regval|=(1<<7)|(0<<6)|(0<<5); 
 334:HARDWARE/LCD/ILI93xx.c **** 				break;
 335:HARDWARE/LCD/ILI93xx.c **** 			case R2L_U2D://从右到左,从上到下
 336:HARDWARE/LCD/ILI93xx.c **** 				regval|=(0<<7)|(1<<6)|(0<<5); 
 337:HARDWARE/LCD/ILI93xx.c **** 				break;
 338:HARDWARE/LCD/ILI93xx.c **** 			case R2L_D2U://从右到左,从下到上
 339:HARDWARE/LCD/ILI93xx.c **** 				regval|=(1<<7)|(1<<6)|(0<<5); 
 340:HARDWARE/LCD/ILI93xx.c **** 				break;	 
 341:HARDWARE/LCD/ILI93xx.c **** 			case U2D_L2R://从上到下,从左到右
 342:HARDWARE/LCD/ILI93xx.c **** 				regval|=(0<<7)|(0<<6)|(1<<5); 
 343:HARDWARE/LCD/ILI93xx.c **** 				break;
 344:HARDWARE/LCD/ILI93xx.c **** 			case U2D_R2L://从上到下,从右到左
 345:HARDWARE/LCD/ILI93xx.c **** 				regval|=(0<<7)|(1<<6)|(1<<5); 
 346:HARDWARE/LCD/ILI93xx.c **** 				break;
 347:HARDWARE/LCD/ILI93xx.c **** 			case D2U_L2R://从下到上,从左到右
 348:HARDWARE/LCD/ILI93xx.c **** 				regval|=(1<<7)|(0<<6)|(1<<5); 
 349:HARDWARE/LCD/ILI93xx.c **** 				break;
 350:HARDWARE/LCD/ILI93xx.c **** 			case D2U_R2L://从下到上,从右到左
 351:HARDWARE/LCD/ILI93xx.c **** 				regval|=(1<<7)|(1<<6)|(1<<5); 
 352:HARDWARE/LCD/ILI93xx.c **** 				break;	 
 353:HARDWARE/LCD/ILI93xx.c **** 		}
 354:HARDWARE/LCD/ILI93xx.c **** 		if(lcddev.id==0X5510)dirreg=0X3600;
 355:HARDWARE/LCD/ILI93xx.c **** 		else dirreg=0X36;
 356:HARDWARE/LCD/ILI93xx.c ****  		if((lcddev.id!=0X5310)&&(lcddev.id!=0X5510)&&(lcddev.id!=0X1963))regval|=0X08;//5310/5510/1963
 357:HARDWARE/LCD/ILI93xx.c **** 		if(lcddev.id==0X6804)regval|=0x02;//6804的BIT6和9341的反了	   
 358:HARDWARE/LCD/ILI93xx.c **** 		LCD_WriteReg(dirreg,regval);
 359:HARDWARE/LCD/ILI93xx.c **** 		if(lcddev.id!=0X1963)//1963不做坐标处理
 360:HARDWARE/LCD/ILI93xx.c **** 		{
 361:HARDWARE/LCD/ILI93xx.c **** 			if(regval&0X20)
 362:HARDWARE/LCD/ILI93xx.c **** 			{
 363:HARDWARE/LCD/ILI93xx.c **** 				if(lcddev.width<lcddev.height)//交换X,Y
 364:HARDWARE/LCD/ILI93xx.c **** 				{
 365:HARDWARE/LCD/ILI93xx.c **** 					temp=lcddev.width;
 366:HARDWARE/LCD/ILI93xx.c **** 					lcddev.width=lcddev.height;
ARM GAS  C:\Users\czsta\AppData\Local\Temp\ccqYu3W2.s 			page 53


 367:HARDWARE/LCD/ILI93xx.c **** 					lcddev.height=temp;
 368:HARDWARE/LCD/ILI93xx.c **** 				}
 369:HARDWARE/LCD/ILI93xx.c **** 			}else  
 370:HARDWARE/LCD/ILI93xx.c **** 			{
 371:HARDWARE/LCD/ILI93xx.c **** 				if(lcddev.width>lcddev.height)//交换X,Y
 372:HARDWARE/LCD/ILI93xx.c **** 				{
 373:HARDWARE/LCD/ILI93xx.c **** 					temp=lcddev.width;
 374:HARDWARE/LCD/ILI93xx.c **** 					lcddev.width=lcddev.height;
 375:HARDWARE/LCD/ILI93xx.c **** 					lcddev.height=temp;
 376:HARDWARE/LCD/ILI93xx.c **** 				}
 377:HARDWARE/LCD/ILI93xx.c **** 			}  
 378:HARDWARE/LCD/ILI93xx.c **** 		}
 379:HARDWARE/LCD/ILI93xx.c **** 		if(lcddev.id==0X5510)
 380:HARDWARE/LCD/ILI93xx.c **** 		{
 381:HARDWARE/LCD/ILI93xx.c **** 			LCD_WR_REG(lcddev.setxcmd);LCD_WR_DATA(0); 
 382:HARDWARE/LCD/ILI93xx.c **** 			LCD_WR_REG(lcddev.setxcmd+1);LCD_WR_DATA(0); 
 383:HARDWARE/LCD/ILI93xx.c **** 			LCD_WR_REG(lcddev.setxcmd+2);LCD_WR_DATA((lcddev.width-1)>>8); 
 384:HARDWARE/LCD/ILI93xx.c **** 			LCD_WR_REG(lcddev.setxcmd+3);LCD_WR_DATA((lcddev.width-1)&0XFF); 
 385:HARDWARE/LCD/ILI93xx.c **** 			LCD_WR_REG(lcddev.setycmd);LCD_WR_DATA(0); 
 386:HARDWARE/LCD/ILI93xx.c **** 			LCD_WR_REG(lcddev.setycmd+1);LCD_WR_DATA(0); 
 387:HARDWARE/LCD/ILI93xx.c **** 			LCD_WR_REG(lcddev.setycmd+2);LCD_WR_DATA((lcddev.height-1)>>8); 
 388:HARDWARE/LCD/ILI93xx.c **** 			LCD_WR_REG(lcddev.setycmd+3);LCD_WR_DATA((lcddev.height-1)&0XFF);
 389:HARDWARE/LCD/ILI93xx.c **** 		}else
 390:HARDWARE/LCD/ILI93xx.c **** 		{
 391:HARDWARE/LCD/ILI93xx.c **** 			LCD_WR_REG(lcddev.setxcmd); 
 392:HARDWARE/LCD/ILI93xx.c **** 			LCD_WR_DATA(0);LCD_WR_DATA(0);
 393:HARDWARE/LCD/ILI93xx.c **** 			LCD_WR_DATA((lcddev.width-1)>>8);LCD_WR_DATA((lcddev.width-1)&0XFF);
 394:HARDWARE/LCD/ILI93xx.c **** 			LCD_WR_REG(lcddev.setycmd); 
 395:HARDWARE/LCD/ILI93xx.c **** 			LCD_WR_DATA(0);LCD_WR_DATA(0);
 396:HARDWARE/LCD/ILI93xx.c **** 			LCD_WR_DATA((lcddev.height-1)>>8);LCD_WR_DATA((lcddev.height-1)&0XFF);  
 397:HARDWARE/LCD/ILI93xx.c **** 		}
 398:HARDWARE/LCD/ILI93xx.c ****   	}else 
 399:HARDWARE/LCD/ILI93xx.c **** 	{
 400:HARDWARE/LCD/ILI93xx.c **** 		switch(dir)
 401:HARDWARE/LCD/ILI93xx.c **** 		{
 402:HARDWARE/LCD/ILI93xx.c **** 			case L2R_U2D://从左到右,从上到下
 403:HARDWARE/LCD/ILI93xx.c **** 				regval|=(1<<5)|(1<<4)|(0<<3); 
 404:HARDWARE/LCD/ILI93xx.c **** 				break;
 405:HARDWARE/LCD/ILI93xx.c **** 			case L2R_D2U://从左到右,从下到上
 406:HARDWARE/LCD/ILI93xx.c **** 				regval|=(0<<5)|(1<<4)|(0<<3); 
 407:HARDWARE/LCD/ILI93xx.c **** 				break;
 408:HARDWARE/LCD/ILI93xx.c **** 			case R2L_U2D://从右到左,从上到下
 409:HARDWARE/LCD/ILI93xx.c **** 				regval|=(1<<5)|(0<<4)|(0<<3);
 410:HARDWARE/LCD/ILI93xx.c **** 				break;
 411:HARDWARE/LCD/ILI93xx.c **** 			case R2L_D2U://从右到左,从下到上
 412:HARDWARE/LCD/ILI93xx.c **** 				regval|=(0<<5)|(0<<4)|(0<<3); 
 413:HARDWARE/LCD/ILI93xx.c **** 				break;	 
 414:HARDWARE/LCD/ILI93xx.c **** 			case U2D_L2R://从上到下,从左到右
 415:HARDWARE/LCD/ILI93xx.c **** 				regval|=(1<<5)|(1<<4)|(1<<3); 
 416:HARDWARE/LCD/ILI93xx.c **** 				break;
 417:HARDWARE/LCD/ILI93xx.c **** 			case U2D_R2L://从上到下,从右到左
 418:HARDWARE/LCD/ILI93xx.c **** 				regval|=(1<<5)|(0<<4)|(1<<3); 
 419:HARDWARE/LCD/ILI93xx.c **** 				break;
 420:HARDWARE/LCD/ILI93xx.c **** 			case D2U_L2R://从下到上,从左到右
 421:HARDWARE/LCD/ILI93xx.c **** 				regval|=(0<<5)|(1<<4)|(1<<3); 
 422:HARDWARE/LCD/ILI93xx.c **** 				break;
 423:HARDWARE/LCD/ILI93xx.c **** 			case D2U_R2L://从下到上,从右到左
ARM GAS  C:\Users\czsta\AppData\Local\Temp\ccqYu3W2.s 			page 54


 424:HARDWARE/LCD/ILI93xx.c **** 				regval|=(0<<5)|(0<<4)|(1<<3); 
 425:HARDWARE/LCD/ILI93xx.c **** 				break;	 
 426:HARDWARE/LCD/ILI93xx.c **** 		} 
 427:HARDWARE/LCD/ILI93xx.c **** 		dirreg=0X03;
 428:HARDWARE/LCD/ILI93xx.c **** 		regval|=1<<12; 
 429:HARDWARE/LCD/ILI93xx.c **** 		LCD_WriteReg(dirreg,regval);
 430:HARDWARE/LCD/ILI93xx.c **** 	}
 431:HARDWARE/LCD/ILI93xx.c **** }     
 2204              		.loc 1 431 0
 2205 008e 05B0     		add	sp, sp, #20
 2206              	.LCFI26:
 2207              		.cfi_remember_state
 2208              		.cfi_def_cfa_offset 36
 2209              		@ sp needed
 2210 0090 BDE8F08F 		pop	{r4, r5, r6, r7, r8, r9, r10, fp, pc}
 2211              	.LVL90:
 2212              	.L118:
 2213              	.LCFI27:
 2214              		.cfi_restore_state
 2215 0094 0138     		subs	r0, r0, #1
 2216              	.LVL91:
 2217 0096 C0B2     		uxtb	r0, r0
 2218 0098 0628     		cmp	r0, #6
 2219 009a 0BD8     		bhi	.L150
 2220              	.L134:
 2221 009c 7D4B     		ldr	r3, .L154+16
 2222 009e 33F81090 		ldrh	r9, [r3, r0, lsl #1]
 2223              	.L122:
 2224              	.LVL92:
 354:HARDWARE/LCD/ILI93xx.c **** 		else dirreg=0X36;
 2225              		.loc 1 354 0
 2226 00a2 45F21053 		movw	r3, #21776
 2227 00a6 9942     		cmp	r1, r3
 2228 00a8 40F04781 		bne	.L151
 2229 00ac 4FF45857 		mov	r7, #13824
 2230 00b0 CC46     		mov	ip, r9
 2231 00b2 0DE0     		b	.L126
 2232              	.LVL93:
 2233              	.L150:
 311:HARDWARE/LCD/ILI93xx.c **** 	{			   
 2234              		.loc 1 311 0
 2235 00b4 4FF00009 		mov	r9, #0
 2236              	.LVL94:
 2237              	.L125:
 357:HARDWARE/LCD/ILI93xx.c **** 		LCD_WriteReg(dirreg,regval);
 2238              		.loc 1 357 0 discriminator 3
 2239 00b8 46F60403 		movw	r3, #26628
 2240 00bc 9942     		cmp	r1, r3
 356:HARDWARE/LCD/ILI93xx.c **** 		if(lcddev.id==0X6804)regval|=0x02;//6804的BIT6和9341的反了	   
 2241              		.loc 1 356 0 discriminator 3
 2242 00be 49F00800 		orr	r0, r9, #8
 2243              	.LVL95:
 357:HARDWARE/LCD/ILI93xx.c **** 		LCD_WriteReg(dirreg,regval);
 2244              		.loc 1 357 0 discriminator 3
 2245 00c2 08BF     		it	eq
 2246 00c4 49F00A09 		orreq	r9, r9, #10
 2247 00c8 40F07081 		bne	.L152
ARM GAS  C:\Users\czsta\AppData\Local\Temp\ccqYu3W2.s 			page 55


 2248              	.LVL96:
 2249              	.L144:
 2250 00cc CC46     		mov	ip, r9
 357:HARDWARE/LCD/ILI93xx.c **** 		LCD_WriteReg(dirreg,regval);
 2251              		.loc 1 357 0 is_stmt 0 discriminator 1
 2252 00ce 3627     		movs	r7, #54
 2253              	.LVL97:
 2254              	.L126:
 2255              	.LBB2512:
 2256              	.LBB2513:
 2257              	.LBB2514:
 2258              	.LBB2515:
  94:HARDWARE/LCD/ILI93xx.c **** 	DATAOUT(data); 
 2259              		.loc 1 94 0 is_stmt 1
 2260 00d0 4FF40070 		mov	r0, #512
  96:HARDWARE/LCD/ILI93xx.c **** 	LCD_WR_SET; 
 2261              		.loc 1 96 0
 2262 00d4 8024     		movs	r4, #128
  93:HARDWARE/LCD/ILI93xx.c ****  	LCD_CS_CLR; 
 2263              		.loc 1 93 0
 2264 00d6 4FF48076 		mov	r6, #256
 2265              	.LBE2515:
 2266              	.LBE2514:
 2267              	.LBE2513:
 2268              	.LBE2512:
 359:HARDWARE/LCD/ILI93xx.c **** 		{
 2269              		.loc 1 359 0
 2270 00da 41F6631A 		movw	r10, #6499
 2271              	.LBB2519:
 2272              	.LBB2518:
 2273              	.LBB2517:
 2274              	.LBB2516:
  93:HARDWARE/LCD/ILI93xx.c ****  	LCD_CS_CLR; 
 2275              		.loc 1 93 0
 2276 00de 6B4B     		ldr	r3, .L154+8
  95:HARDWARE/LCD/ILI93xx.c **** 	LCD_WR_CLR; 
 2277              		.loc 1 95 0
 2278 00e0 6B4D     		ldr	r5, .L154+12
  93:HARDWARE/LCD/ILI93xx.c ****  	LCD_CS_CLR; 
 2279              		.loc 1 93 0
 2280 00e2 5E61     		str	r6, [r3, #20]
  94:HARDWARE/LCD/ILI93xx.c **** 	DATAOUT(data); 
 2281              		.loc 1 94 0
 2282 00e4 5861     		str	r0, [r3, #20]
  95:HARDWARE/LCD/ILI93xx.c **** 	LCD_WR_CLR; 
 2283              		.loc 1 95 0
 2284 00e6 EF60     		str	r7, [r5, #12]
  96:HARDWARE/LCD/ILI93xx.c **** 	LCD_WR_SET; 
 2285              		.loc 1 96 0
 2286 00e8 5C61     		str	r4, [r3, #20]
  97:HARDWARE/LCD/ILI93xx.c ****  	LCD_CS_SET;   
 2287              		.loc 1 97 0
 2288 00ea 1C61     		str	r4, [r3, #16]
  98:HARDWARE/LCD/ILI93xx.c **** }
 2289              		.loc 1 98 0
 2290 00ec 1861     		str	r0, [r3, #16]
 2291              	.LBE2516:
ARM GAS  C:\Users\czsta\AppData\Local\Temp\ccqYu3W2.s 			page 56


 2292              	.LBE2517:
 141:HARDWARE/LCD/ILI93xx.c **** }   
 2293              		.loc 1 141 0
 2294 00ee 1E61     		str	r6, [r3, #16]
 2295 00f0 5861     		str	r0, [r3, #20]
 2296 00f2 C5F80CC0 		str	ip, [r5, #12]
 2297 00f6 5C61     		str	r4, [r3, #20]
 2298 00f8 1C61     		str	r4, [r3, #16]
 2299 00fa 1861     		str	r0, [r3, #16]
 2300              	.LVL98:
 2301 00fc 5088     		ldrh	r0, [r2, #2]
 2302 00fe 1388     		ldrh	r3, [r2]
 2303 0100 451E     		subs	r5, r0, #1
 2304 0102 5E1E     		subs	r6, r3, #1
 2305 0104 4FEA252E 		asr	lr, r5, #8
 2306              	.LBE2518:
 2307              	.LBE2519:
 359:HARDWARE/LCD/ILI93xx.c **** 		{
 2308              		.loc 1 359 0
 2309 0108 5145     		cmp	r1, r10
 2310 010a EDB2     		uxtb	r5, r5
 2311 010c 4FEA2628 		asr	r8, r6, #8
 2312 0110 0195     		str	r5, [sp, #4]
 2313 0112 F6B2     		uxtb	r6, r6
 2314 0114 B2F80AC0 		ldrh	ip, [r2, #10]
 2315 0118 9789     		ldrh	r7, [r2, #12]
 2316 011a 00F0BD80 		beq	.L128
 361:HARDWARE/LCD/ILI93xx.c **** 			{
 2317              		.loc 1 361 0
 2318 011e 19F0200F 		tst	r9, #32
 2319 0122 00F0FD80 		beq	.L129
 363:HARDWARE/LCD/ILI93xx.c **** 				{
 2320              		.loc 1 363 0
 2321 0126 8342     		cmp	r3, r0
 2322 0128 C0F01281 		bcc	.L153
 2323              	.LVL99:
 2324              	.L130:
 379:HARDWARE/LCD/ILI93xx.c **** 		{
 2325              		.loc 1 379 0
 2326 012c 45F21053 		movw	r3, #21776
 2327 0130 9942     		cmp	r1, r3
 2328 0132 40F0B180 		bne	.L128
 2329              	.LVL100:
 2330              	.LBB2520:
 2331              	.LBB2521:
  94:HARDWARE/LCD/ILI93xx.c **** 	DATAOUT(data); 
 2332              		.loc 1 94 0
 2333 0136 4FF40072 		mov	r2, #512
  96:HARDWARE/LCD/ILI93xx.c **** 	LCD_WR_SET; 
 2334              		.loc 1 96 0
 2335 013a 8021     		movs	r1, #128
  93:HARDWARE/LCD/ILI93xx.c ****  	LCD_CS_CLR; 
 2336              		.loc 1 93 0
 2337 013c 4FF48074 		mov	r4, #256
 2338              	.LBE2521:
 2339              	.LBE2520:
 381:HARDWARE/LCD/ILI93xx.c **** 			LCD_WR_REG(lcddev.setxcmd+1);LCD_WR_DATA(0); 
ARM GAS  C:\Users\czsta\AppData\Local\Temp\ccqYu3W2.s 			page 57


 2340              		.loc 1 381 0
 2341 0140 4FF00009 		mov	r9, #0
 383:HARDWARE/LCD/ILI93xx.c **** 			LCD_WR_REG(lcddev.setxcmd+3);LCD_WR_DATA((lcddev.width-1)&0XFF); 
 2342              		.loc 1 383 0
 2343 0144 0CF1020B 		add	fp, ip, #2
 2344              	.LBB2526:
 2345              	.LBB2527:
  95:HARDWARE/LCD/ILI93xx.c **** 	LCD_WR_CLR; 
 2346              		.loc 1 95 0
 2347 0148 1FFA8BF5 		uxth	r5, fp
 2348 014c 0395     		str	r5, [sp, #12]
 2349              	.LBE2527:
 2350              	.LBE2526:
 2351              	.LBB2530:
 2352              	.LBB2522:
  93:HARDWARE/LCD/ILI93xx.c ****  	LCD_CS_CLR; 
 2353              		.loc 1 93 0
 2354 014e 4F4B     		ldr	r3, .L154+8
  95:HARDWARE/LCD/ILI93xx.c **** 	LCD_WR_CLR; 
 2355              		.loc 1 95 0
 2356 0150 4F48     		ldr	r0, .L154+12
 2357              	.LBE2522:
 2358              	.LBE2530:
 2359              	.LBB2531:
 2360              	.LBB2528:
 2361 0152 039D     		ldr	r5, [sp, #12]
 2362              	.LBE2528:
 2363              	.LBE2531:
 382:HARDWARE/LCD/ILI93xx.c **** 			LCD_WR_REG(lcddev.setxcmd+2);LCD_WR_DATA((lcddev.width-1)>>8); 
 2364              		.loc 1 382 0
 2365 0154 0CF1010A 		add	r10, ip, #1
 384:HARDWARE/LCD/ILI93xx.c **** 			LCD_WR_REG(lcddev.setycmd);LCD_WR_DATA(0); 
 2366              		.loc 1 384 0
 2367 0158 0CF1030B 		add	fp, ip, #3
 2368              	.LBB2532:
 2369              	.LBB2533:
  95:HARDWARE/LCD/ILI93xx.c **** 	LCD_WR_CLR; 
 2370              		.loc 1 95 0
 2371 015c 1FFA8AFA 		uxth	r10, r10
 2372              	.LBE2533:
 2373              	.LBE2532:
 2374              	.LBB2536:
 2375              	.LBB2537:
 2376 0160 1FFA8BFB 		uxth	fp, fp
 2377 0164 CDF808B0 		str	fp, [sp, #8]
 2378              	.LBE2537:
 2379              	.LBE2536:
 2380              	.LBB2540:
 2381              	.LBB2523:
  93:HARDWARE/LCD/ILI93xx.c ****  	LCD_CS_CLR; 
 2382              		.loc 1 93 0
 2383 0168 5C61     		str	r4, [r3, #20]
 2384              	.LBE2523:
 2385              	.LBE2540:
 388:HARDWARE/LCD/ILI93xx.c **** 		}else
 2386              		.loc 1 388 0
 2387 016a 07F1030B 		add	fp, r7, #3
ARM GAS  C:\Users\czsta\AppData\Local\Temp\ccqYu3W2.s 			page 58


 2388              	.LBB2541:
 2389              	.LBB2524:
  94:HARDWARE/LCD/ILI93xx.c **** 	DATAOUT(data); 
 2390              		.loc 1 94 0
 2391 016e 5A61     		str	r2, [r3, #20]
  95:HARDWARE/LCD/ILI93xx.c **** 	LCD_WR_CLR; 
 2392              		.loc 1 95 0
 2393 0170 C0F80CC0 		str	ip, [r0, #12]
  96:HARDWARE/LCD/ILI93xx.c **** 	LCD_WR_SET; 
 2394              		.loc 1 96 0
 2395 0174 5961     		str	r1, [r3, #20]
 2396              	.LBE2524:
 2397              	.LBE2541:
 386:HARDWARE/LCD/ILI93xx.c **** 			LCD_WR_REG(lcddev.setycmd+2);LCD_WR_DATA((lcddev.height-1)>>8); 
 2398              		.loc 1 386 0
 2399 0176 07F1010C 		add	ip, r7, #1
 2400              	.LBB2542:
 2401              	.LBB2525:
  97:HARDWARE/LCD/ILI93xx.c ****  	LCD_CS_SET;   
 2402              		.loc 1 97 0
 2403 017a 1961     		str	r1, [r3, #16]
  98:HARDWARE/LCD/ILI93xx.c **** }
 2404              		.loc 1 98 0
 2405 017c 1A61     		str	r2, [r3, #16]
 2406              	.LVL101:
 2407              	.LBE2525:
 2408              	.LBE2542:
 381:HARDWARE/LCD/ILI93xx.c **** 			LCD_WR_REG(lcddev.setxcmd+1);LCD_WR_DATA(0); 
 2409              		.loc 1 381 0
 2410 017e 1C61     		str	r4, [r3, #16]
 2411 0180 5A61     		str	r2, [r3, #20]
 2412 0182 C0F80C90 		str	r9, [r0, #12]
 2413 0186 5961     		str	r1, [r3, #20]
 2414 0188 1961     		str	r1, [r3, #16]
 2415 018a 1A61     		str	r2, [r3, #16]
 2416              	.LVL102:
 2417              	.LBB2543:
 2418              	.LBB2534:
  93:HARDWARE/LCD/ILI93xx.c ****  	LCD_CS_CLR; 
 2419              		.loc 1 93 0
 2420 018c 5C61     		str	r4, [r3, #20]
  94:HARDWARE/LCD/ILI93xx.c **** 	DATAOUT(data); 
 2421              		.loc 1 94 0
 2422 018e 5A61     		str	r2, [r3, #20]
  95:HARDWARE/LCD/ILI93xx.c **** 	LCD_WR_CLR; 
 2423              		.loc 1 95 0
 2424 0190 C0F80CA0 		str	r10, [r0, #12]
  96:HARDWARE/LCD/ILI93xx.c **** 	LCD_WR_SET; 
 2425              		.loc 1 96 0
 2426 0194 5961     		str	r1, [r3, #20]
 2427              	.LBE2534:
 2428              	.LBE2543:
 387:HARDWARE/LCD/ILI93xx.c **** 			LCD_WR_REG(lcddev.setycmd+3);LCD_WR_DATA((lcddev.height-1)&0XFF);
 2429              		.loc 1 387 0
 2430 0196 07F1020A 		add	r10, r7, #2
 2431              	.LBB2544:
 2432              	.LBB2535:
ARM GAS  C:\Users\czsta\AppData\Local\Temp\ccqYu3W2.s 			page 59


  97:HARDWARE/LCD/ILI93xx.c ****  	LCD_CS_SET;   
 2433              		.loc 1 97 0
 2434 019a 1961     		str	r1, [r3, #16]
  98:HARDWARE/LCD/ILI93xx.c **** }
 2435              		.loc 1 98 0
 2436 019c 1A61     		str	r2, [r3, #16]
 2437              	.LVL103:
 2438              	.LBE2535:
 2439              	.LBE2544:
 382:HARDWARE/LCD/ILI93xx.c **** 			LCD_WR_REG(lcddev.setxcmd+2);LCD_WR_DATA((lcddev.width-1)>>8); 
 2440              		.loc 1 382 0
 2441 019e 1C61     		str	r4, [r3, #16]
 2442 01a0 5A61     		str	r2, [r3, #20]
 2443 01a2 C0F80C90 		str	r9, [r0, #12]
 2444 01a6 5961     		str	r1, [r3, #20]
 2445 01a8 1961     		str	r1, [r3, #16]
 2446 01aa 1A61     		str	r2, [r3, #16]
 2447              	.LVL104:
 2448              	.LBB2545:
 2449              	.LBB2529:
  93:HARDWARE/LCD/ILI93xx.c ****  	LCD_CS_CLR; 
 2450              		.loc 1 93 0
 2451 01ac 5C61     		str	r4, [r3, #20]
  94:HARDWARE/LCD/ILI93xx.c **** 	DATAOUT(data); 
 2452              		.loc 1 94 0
 2453 01ae 5A61     		str	r2, [r3, #20]
  95:HARDWARE/LCD/ILI93xx.c **** 	LCD_WR_CLR; 
 2454              		.loc 1 95 0
 2455 01b0 C560     		str	r5, [r0, #12]
  96:HARDWARE/LCD/ILI93xx.c **** 	LCD_WR_SET; 
 2456              		.loc 1 96 0
 2457 01b2 5961     		str	r1, [r3, #20]
  97:HARDWARE/LCD/ILI93xx.c ****  	LCD_CS_SET;   
 2458              		.loc 1 97 0
 2459 01b4 1961     		str	r1, [r3, #16]
  98:HARDWARE/LCD/ILI93xx.c **** }
 2460              		.loc 1 98 0
 2461 01b6 1A61     		str	r2, [r3, #16]
 2462              	.LVL105:
 2463              	.LBE2529:
 2464              	.LBE2545:
 2465              	.LBB2546:
 2466              	.LBB2538:
  95:HARDWARE/LCD/ILI93xx.c **** 	LCD_WR_CLR; 
 2467              		.loc 1 95 0
 2468 01b8 029D     		ldr	r5, [sp, #8]
 2469              	.LBE2538:
 2470              	.LBE2546:
 2471              	.LBB2547:
 2472              	.LBB2548:
 2473 01ba 1FFA8CFC 		uxth	ip, ip
 2474              	.LBE2548:
 2475              	.LBE2547:
 2476              	.LBB2550:
 2477              	.LBB2551:
 2478 01be 1FFA8AFA 		uxth	r10, r10
 2479              	.LBE2551:
ARM GAS  C:\Users\czsta\AppData\Local\Temp\ccqYu3W2.s 			page 60


 2480              	.LBE2550:
 2481              	.LBB2553:
 2482              	.LBB2554:
 2483 01c2 1FFA8BFB 		uxth	fp, fp
 2484              	.LBE2554:
 2485              	.LBE2553:
 383:HARDWARE/LCD/ILI93xx.c **** 			LCD_WR_REG(lcddev.setxcmd+3);LCD_WR_DATA((lcddev.width-1)&0XFF); 
 2486              		.loc 1 383 0
 2487 01c6 1C61     		str	r4, [r3, #16]
 2488 01c8 5A61     		str	r2, [r3, #20]
 2489 01ca C0F80C80 		str	r8, [r0, #12]
 2490 01ce 5961     		str	r1, [r3, #20]
 2491 01d0 1961     		str	r1, [r3, #16]
 2492 01d2 1A61     		str	r2, [r3, #16]
 2493              	.LVL106:
 2494              	.LBB2556:
 2495              	.LBB2539:
  93:HARDWARE/LCD/ILI93xx.c ****  	LCD_CS_CLR; 
 2496              		.loc 1 93 0
 2497 01d4 5C61     		str	r4, [r3, #20]
  94:HARDWARE/LCD/ILI93xx.c **** 	DATAOUT(data); 
 2498              		.loc 1 94 0
 2499 01d6 5A61     		str	r2, [r3, #20]
  95:HARDWARE/LCD/ILI93xx.c **** 	LCD_WR_CLR; 
 2500              		.loc 1 95 0
 2501 01d8 C560     		str	r5, [r0, #12]
  96:HARDWARE/LCD/ILI93xx.c **** 	LCD_WR_SET; 
 2502              		.loc 1 96 0
 2503 01da 5961     		str	r1, [r3, #20]
  97:HARDWARE/LCD/ILI93xx.c ****  	LCD_CS_SET;   
 2504              		.loc 1 97 0
 2505 01dc 1961     		str	r1, [r3, #16]
  98:HARDWARE/LCD/ILI93xx.c **** }
 2506              		.loc 1 98 0
 2507 01de 1A61     		str	r2, [r3, #16]
 2508              	.LVL107:
 2509              	.LBE2539:
 2510              	.LBE2556:
 384:HARDWARE/LCD/ILI93xx.c **** 			LCD_WR_REG(lcddev.setycmd);LCD_WR_DATA(0); 
 2511              		.loc 1 384 0
 2512 01e0 1C61     		str	r4, [r3, #16]
 2513 01e2 5A61     		str	r2, [r3, #20]
 2514 01e4 C660     		str	r6, [r0, #12]
 2515 01e6 5961     		str	r1, [r3, #20]
 2516 01e8 1961     		str	r1, [r3, #16]
 2517 01ea 1A61     		str	r2, [r3, #16]
 2518              	.LVL108:
 2519              	.LBB2557:
 2520              	.LBB2558:
  93:HARDWARE/LCD/ILI93xx.c ****  	LCD_CS_CLR; 
 2521              		.loc 1 93 0
 2522 01ec 5C61     		str	r4, [r3, #20]
  94:HARDWARE/LCD/ILI93xx.c **** 	DATAOUT(data); 
 2523              		.loc 1 94 0
 2524 01ee 5A61     		str	r2, [r3, #20]
  95:HARDWARE/LCD/ILI93xx.c **** 	LCD_WR_CLR; 
 2525              		.loc 1 95 0
ARM GAS  C:\Users\czsta\AppData\Local\Temp\ccqYu3W2.s 			page 61


 2526 01f0 C760     		str	r7, [r0, #12]
  96:HARDWARE/LCD/ILI93xx.c **** 	LCD_WR_SET; 
 2527              		.loc 1 96 0
 2528 01f2 5961     		str	r1, [r3, #20]
  97:HARDWARE/LCD/ILI93xx.c ****  	LCD_CS_SET;   
 2529              		.loc 1 97 0
 2530 01f4 1961     		str	r1, [r3, #16]
  98:HARDWARE/LCD/ILI93xx.c **** }
 2531              		.loc 1 98 0
 2532 01f6 1A61     		str	r2, [r3, #16]
 2533              	.LVL109:
 2534              	.LBE2558:
 2535              	.LBE2557:
 385:HARDWARE/LCD/ILI93xx.c **** 			LCD_WR_REG(lcddev.setycmd+1);LCD_WR_DATA(0); 
 2536              		.loc 1 385 0
 2537 01f8 1C61     		str	r4, [r3, #16]
 2538 01fa 5A61     		str	r2, [r3, #20]
 2539 01fc C0F80C90 		str	r9, [r0, #12]
 2540 0200 5961     		str	r1, [r3, #20]
 2541 0202 1961     		str	r1, [r3, #16]
 2542 0204 1A61     		str	r2, [r3, #16]
 2543              	.LVL110:
 2544              	.LBB2559:
 2545              	.LBB2549:
  93:HARDWARE/LCD/ILI93xx.c ****  	LCD_CS_CLR; 
 2546              		.loc 1 93 0
 2547 0206 5C61     		str	r4, [r3, #20]
  94:HARDWARE/LCD/ILI93xx.c **** 	DATAOUT(data); 
 2548              		.loc 1 94 0
 2549 0208 5A61     		str	r2, [r3, #20]
  95:HARDWARE/LCD/ILI93xx.c **** 	LCD_WR_CLR; 
 2550              		.loc 1 95 0
 2551 020a C0F80CC0 		str	ip, [r0, #12]
  96:HARDWARE/LCD/ILI93xx.c **** 	LCD_WR_SET; 
 2552              		.loc 1 96 0
 2553 020e 5961     		str	r1, [r3, #20]
  97:HARDWARE/LCD/ILI93xx.c ****  	LCD_CS_SET;   
 2554              		.loc 1 97 0
 2555 0210 1961     		str	r1, [r3, #16]
  98:HARDWARE/LCD/ILI93xx.c **** }
 2556              		.loc 1 98 0
 2557 0212 1A61     		str	r2, [r3, #16]
 2558              	.LVL111:
 2559              	.LBE2549:
 2560              	.LBE2559:
 386:HARDWARE/LCD/ILI93xx.c **** 			LCD_WR_REG(lcddev.setycmd+2);LCD_WR_DATA((lcddev.height-1)>>8); 
 2561              		.loc 1 386 0
 2562 0214 1C61     		str	r4, [r3, #16]
 2563 0216 5A61     		str	r2, [r3, #20]
 2564 0218 C0F80C90 		str	r9, [r0, #12]
 2565 021c 5961     		str	r1, [r3, #20]
 2566 021e 1961     		str	r1, [r3, #16]
 2567 0220 1A61     		str	r2, [r3, #16]
 2568              	.LVL112:
 2569              	.LBB2560:
 2570              	.LBB2552:
  93:HARDWARE/LCD/ILI93xx.c ****  	LCD_CS_CLR; 
ARM GAS  C:\Users\czsta\AppData\Local\Temp\ccqYu3W2.s 			page 62


 2571              		.loc 1 93 0
 2572 0222 5C61     		str	r4, [r3, #20]
  94:HARDWARE/LCD/ILI93xx.c **** 	DATAOUT(data); 
 2573              		.loc 1 94 0
 2574 0224 5A61     		str	r2, [r3, #20]
  95:HARDWARE/LCD/ILI93xx.c **** 	LCD_WR_CLR; 
 2575              		.loc 1 95 0
 2576 0226 C0F80CA0 		str	r10, [r0, #12]
  96:HARDWARE/LCD/ILI93xx.c **** 	LCD_WR_SET; 
 2577              		.loc 1 96 0
 2578 022a 5961     		str	r1, [r3, #20]
  97:HARDWARE/LCD/ILI93xx.c ****  	LCD_CS_SET;   
 2579              		.loc 1 97 0
 2580 022c 1961     		str	r1, [r3, #16]
  98:HARDWARE/LCD/ILI93xx.c **** }
 2581              		.loc 1 98 0
 2582 022e 1A61     		str	r2, [r3, #16]
 2583              	.LVL113:
 2584              	.LBE2552:
 2585              	.LBE2560:
 387:HARDWARE/LCD/ILI93xx.c **** 			LCD_WR_REG(lcddev.setycmd+3);LCD_WR_DATA((lcddev.height-1)&0XFF);
 2586              		.loc 1 387 0
 2587 0230 1C61     		str	r4, [r3, #16]
 2588 0232 5A61     		str	r2, [r3, #20]
 2589 0234 C0F80CE0 		str	lr, [r0, #12]
 2590 0238 5961     		str	r1, [r3, #20]
 2591 023a 1961     		str	r1, [r3, #16]
 2592 023c 1A61     		str	r2, [r3, #16]
 2593              	.LVL114:
 2594              	.LBB2561:
 2595              	.LBB2555:
  93:HARDWARE/LCD/ILI93xx.c ****  	LCD_CS_CLR; 
 2596              		.loc 1 93 0
 2597 023e 5C61     		str	r4, [r3, #20]
  94:HARDWARE/LCD/ILI93xx.c **** 	DATAOUT(data); 
 2598              		.loc 1 94 0
 2599 0240 5A61     		str	r2, [r3, #20]
  95:HARDWARE/LCD/ILI93xx.c **** 	LCD_WR_CLR; 
 2600              		.loc 1 95 0
 2601 0242 C0F80CB0 		str	fp, [r0, #12]
 2602              	.LVL115:
 2603              	.L147:
 2604              	.LBE2555:
 2605              	.LBE2561:
 396:HARDWARE/LCD/ILI93xx.c **** 		}
 2606              		.loc 1 396 0
 2607 0246 5961     		str	r1, [r3, #20]
 2608 0248 1961     		str	r1, [r3, #16]
 2609 024a 1A61     		str	r2, [r3, #16]
 2610 024c 1C61     		str	r4, [r3, #16]
 2611 024e 019C     		ldr	r4, [sp, #4]
 2612 0250 5A61     		str	r2, [r3, #20]
 2613 0252 C460     		str	r4, [r0, #12]
 2614 0254 5961     		str	r1, [r3, #20]
 2615 0256 1961     		str	r1, [r3, #16]
 2616 0258 1A61     		str	r2, [r3, #16]
 2617              		.loc 1 431 0
ARM GAS  C:\Users\czsta\AppData\Local\Temp\ccqYu3W2.s 			page 63


 2618 025a 05B0     		add	sp, sp, #20
 2619              	.LCFI28:
 2620              		.cfi_remember_state
 2621              		.cfi_def_cfa_offset 36
 2622              		@ sp needed
 2623 025c BDE8F08F 		pop	{r4, r5, r6, r7, r8, r9, r10, fp, pc}
 2624              	.LVL116:
 2625              	.L148:
 2626              	.LCFI29:
 2627              		.cfi_restore_state
 311:HARDWARE/LCD/ILI93xx.c **** 	{			   
 2628              		.loc 1 311 0 discriminator 1
 2629 0260 46F60403 		movw	r3, #26628
 2630 0264 9942     		cmp	r1, r3
 2631 0266 3FF415AF 		beq	.L118
 311:HARDWARE/LCD/ILI93xx.c **** 	{			   
 2632              		.loc 1 311 0 is_stmt 0 discriminator 3
 2633 026a 41F66313 		movw	r3, #6499
 2634 026e 9942     		cmp	r1, r3
 2635 0270 72D0     		beq	.L107
 2636              	.L106:
 313:HARDWARE/LCD/ILI93xx.c **** 		{
 2637              		.loc 1 313 0 is_stmt 1
 2638 0272 0728     		cmp	r0, #7
 2639 0274 3FF6D3AE 		bhi	.L108
 2640 0278 DFE800F0 		tbb	[pc, r0]
 2641              	.L110:
 2642 027c 80       		.byte	(.L136-.L110)/2
 2643 027d 8E       		.byte	(.L111-.L110)/2
 2644 027e 82       		.byte	(.L112-.L110)/2
 2645 027f 84       		.byte	(.L113-.L110)/2
 2646 0280 86       		.byte	(.L114-.L110)/2
 2647 0281 88       		.byte	(.L115-.L110)/2
 2648 0282 8A       		.byte	(.L116-.L110)/2
 2649 0283 8C       		.byte	(.L117-.L110)/2
 2650              		.p2align 1
 2651              	.L155:
 2652              		.align	2
 2653              	.L154:
 2654 0284 00000000 		.word	lcddev
 2655 0288 00000000 		.word	.LANCHOR1
 2656 028c 00100140 		.word	1073811456
 2657 0290 000C0140 		.word	1073810432
 2658 0294 00000000 		.word	.LANCHOR0
 2659              	.LVL117:
 2660              	.L128:
 2661              	.LBB2562:
 2662              	.LBB2563:
  94:HARDWARE/LCD/ILI93xx.c **** 	DATAOUT(data); 
 2663              		.loc 1 94 0
 2664 0298 4FF40072 		mov	r2, #512
  96:HARDWARE/LCD/ILI93xx.c **** 	LCD_WR_SET; 
 2665              		.loc 1 96 0
 2666 029c 8021     		movs	r1, #128
  93:HARDWARE/LCD/ILI93xx.c ****  	LCD_CS_CLR; 
 2667              		.loc 1 93 0
 2668 029e 4FF48074 		mov	r4, #256
ARM GAS  C:\Users\czsta\AppData\Local\Temp\ccqYu3W2.s 			page 64


 2669              	.LBE2563:
 2670              	.LBE2562:
 392:HARDWARE/LCD/ILI93xx.c **** 			LCD_WR_DATA((lcddev.width-1)>>8);LCD_WR_DATA((lcddev.width-1)&0XFF);
 2671              		.loc 1 392 0
 2672 02a2 4FF00009 		mov	r9, #0
 2673              	.LBB2565:
 2674              	.LBB2564:
  93:HARDWARE/LCD/ILI93xx.c ****  	LCD_CS_CLR; 
 2675              		.loc 1 93 0
 2676 02a6 434B     		ldr	r3, .L156
  95:HARDWARE/LCD/ILI93xx.c **** 	LCD_WR_CLR; 
 2677              		.loc 1 95 0
 2678 02a8 4348     		ldr	r0, .L156+4
  93:HARDWARE/LCD/ILI93xx.c ****  	LCD_CS_CLR; 
 2679              		.loc 1 93 0
 2680 02aa 5C61     		str	r4, [r3, #20]
  94:HARDWARE/LCD/ILI93xx.c **** 	DATAOUT(data); 
 2681              		.loc 1 94 0
 2682 02ac 5A61     		str	r2, [r3, #20]
  95:HARDWARE/LCD/ILI93xx.c **** 	LCD_WR_CLR; 
 2683              		.loc 1 95 0
 2684 02ae C0F80CC0 		str	ip, [r0, #12]
  96:HARDWARE/LCD/ILI93xx.c **** 	LCD_WR_SET; 
 2685              		.loc 1 96 0
 2686 02b2 5961     		str	r1, [r3, #20]
  97:HARDWARE/LCD/ILI93xx.c ****  	LCD_CS_SET;   
 2687              		.loc 1 97 0
 2688 02b4 1961     		str	r1, [r3, #16]
  98:HARDWARE/LCD/ILI93xx.c **** }
 2689              		.loc 1 98 0
 2690 02b6 1A61     		str	r2, [r3, #16]
 2691              	.LVL118:
 2692              	.LBE2564:
 2693              	.LBE2565:
 392:HARDWARE/LCD/ILI93xx.c **** 			LCD_WR_DATA((lcddev.width-1)>>8);LCD_WR_DATA((lcddev.width-1)&0XFF);
 2694              		.loc 1 392 0
 2695 02b8 1C61     		str	r4, [r3, #16]
 2696 02ba 5A61     		str	r2, [r3, #20]
 2697 02bc C0F80C90 		str	r9, [r0, #12]
 2698 02c0 5961     		str	r1, [r3, #20]
 2699 02c2 1961     		str	r1, [r3, #16]
 2700 02c4 1A61     		str	r2, [r3, #16]
 2701 02c6 1C61     		str	r4, [r3, #16]
 2702 02c8 5A61     		str	r2, [r3, #20]
 2703 02ca C0F80C90 		str	r9, [r0, #12]
 2704 02ce 5961     		str	r1, [r3, #20]
 2705 02d0 1961     		str	r1, [r3, #16]
 2706 02d2 1A61     		str	r2, [r3, #16]
 393:HARDWARE/LCD/ILI93xx.c **** 			LCD_WR_REG(lcddev.setycmd); 
 2707              		.loc 1 393 0
 2708 02d4 1C61     		str	r4, [r3, #16]
 2709 02d6 5A61     		str	r2, [r3, #20]
 2710 02d8 C0F80C80 		str	r8, [r0, #12]
 2711 02dc 5961     		str	r1, [r3, #20]
 2712 02de 1961     		str	r1, [r3, #16]
 2713 02e0 1A61     		str	r2, [r3, #16]
 2714 02e2 1C61     		str	r4, [r3, #16]
ARM GAS  C:\Users\czsta\AppData\Local\Temp\ccqYu3W2.s 			page 65


 2715 02e4 5A61     		str	r2, [r3, #20]
 2716 02e6 C660     		str	r6, [r0, #12]
 2717 02e8 5961     		str	r1, [r3, #20]
 2718 02ea 1961     		str	r1, [r3, #16]
 2719 02ec 1A61     		str	r2, [r3, #16]
 2720              	.LVL119:
 2721              	.LBB2566:
 2722              	.LBB2567:
  93:HARDWARE/LCD/ILI93xx.c ****  	LCD_CS_CLR; 
 2723              		.loc 1 93 0
 2724 02ee 5C61     		str	r4, [r3, #20]
  94:HARDWARE/LCD/ILI93xx.c **** 	DATAOUT(data); 
 2725              		.loc 1 94 0
 2726 02f0 5A61     		str	r2, [r3, #20]
  95:HARDWARE/LCD/ILI93xx.c **** 	LCD_WR_CLR; 
 2727              		.loc 1 95 0
 2728 02f2 C760     		str	r7, [r0, #12]
  96:HARDWARE/LCD/ILI93xx.c **** 	LCD_WR_SET; 
 2729              		.loc 1 96 0
 2730 02f4 5961     		str	r1, [r3, #20]
  97:HARDWARE/LCD/ILI93xx.c ****  	LCD_CS_SET;   
 2731              		.loc 1 97 0
 2732 02f6 1961     		str	r1, [r3, #16]
  98:HARDWARE/LCD/ILI93xx.c **** }
 2733              		.loc 1 98 0
 2734 02f8 1A61     		str	r2, [r3, #16]
 2735              	.LVL120:
 2736              	.LBE2567:
 2737              	.LBE2566:
 395:HARDWARE/LCD/ILI93xx.c **** 			LCD_WR_DATA((lcddev.height-1)>>8);LCD_WR_DATA((lcddev.height-1)&0XFF);  
 2738              		.loc 1 395 0
 2739 02fa 1C61     		str	r4, [r3, #16]
 2740 02fc 5A61     		str	r2, [r3, #20]
 2741 02fe C0F80C90 		str	r9, [r0, #12]
 2742 0302 5961     		str	r1, [r3, #20]
 2743 0304 1961     		str	r1, [r3, #16]
 2744 0306 1A61     		str	r2, [r3, #16]
 2745 0308 1C61     		str	r4, [r3, #16]
 2746 030a 5A61     		str	r2, [r3, #20]
 2747 030c C0F80C90 		str	r9, [r0, #12]
 2748 0310 5961     		str	r1, [r3, #20]
 2749 0312 1961     		str	r1, [r3, #16]
 2750 0314 1A61     		str	r2, [r3, #16]
 396:HARDWARE/LCD/ILI93xx.c **** 		}
 2751              		.loc 1 396 0
 2752 0316 1C61     		str	r4, [r3, #16]
 2753 0318 5A61     		str	r2, [r3, #20]
 2754 031a C0F80CE0 		str	lr, [r0, #12]
 2755 031e 92E7     		b	.L147
 2756              	.LVL121:
 2757              	.L129:
 371:HARDWARE/LCD/ILI93xx.c **** 				{
 2758              		.loc 1 371 0
 2759 0320 8342     		cmp	r3, r0
 2760 0322 7FF603AF 		bls	.L130
 2761              	.LVL122:
 375:HARDWARE/LCD/ILI93xx.c **** 				}
ARM GAS  C:\Users\czsta\AppData\Local\Temp\ccqYu3W2.s 			page 66


 2762              		.loc 1 375 0
 2763 0326 4446     		mov	r4, r8
 2764 0328 B146     		mov	r9, r6
 2765              	.LVL123:
 2766 032a 019E     		ldr	r6, [sp, #4]
 2767              	.LVL124:
 2768              	.L145:
 2769 032c F046     		mov	r8, lr
 2770 032e CDF80490 		str	r9, [sp, #4]
 2771 0332 A646     		mov	lr, r4
 374:HARDWARE/LCD/ILI93xx.c **** 					lcddev.height=temp;
 2772              		.loc 1 374 0
 2773 0334 1080     		strh	r0, [r2]	@ movhi
 375:HARDWARE/LCD/ILI93xx.c **** 				}
 2774              		.loc 1 375 0
 2775 0336 5380     		strh	r3, [r2, #2]	@ movhi
 2776 0338 F8E6     		b	.L130
 2777              	.LVL125:
 2778              	.L151:
 356:HARDWARE/LCD/ILI93xx.c **** 		if(lcddev.id==0X6804)regval|=0x02;//6804的BIT6和9341的反了	   
 2779              		.loc 1 356 0
 2780 033a 45F21033 		movw	r3, #21264
 2781 033e 9942     		cmp	r1, r3
 2782 0340 3FF4C4AE 		beq	.L144
 356:HARDWARE/LCD/ILI93xx.c **** 		if(lcddev.id==0X6804)regval|=0x02;//6804的BIT6和9341的反了	   
 2783              		.loc 1 356 0 is_stmt 0 discriminator 2
 2784 0344 41F66313 		movw	r3, #6499
 2785 0348 9942     		cmp	r1, r3
 2786 034a 3FF4BFAE 		beq	.L144
 2787 034e B3E6     		b	.L125
 2788              	.LVL126:
 2789              	.L153:
 367:HARDWARE/LCD/ILI93xx.c **** 				}
 2790              		.loc 1 367 0 is_stmt 1
 2791 0350 B146     		mov	r9, r6
 2792              	.LVL127:
 2793 0352 4446     		mov	r4, r8
 2794 0354 2E46     		mov	r6, r5
 2795 0356 E9E7     		b	.L145
 2796              	.LVL128:
 2797              	.L107:
 2798 0358 0138     		subs	r0, r0, #1
 2799              	.LVL129:
 2800 035a C0B2     		uxtb	r0, r0
 2801 035c 0628     		cmp	r0, #6
 2802 035e 7FF69DAE 		bls	.L134
 321:HARDWARE/LCD/ILI93xx.c **** 			case 7:dir=2;break;	     
 2803              		.loc 1 321 0
 2804 0362 4FF00009 		mov	r9, #0
 2805 0366 9CE6     		b	.L122
 2806              	.LVL130:
 2807              	.L119:
 2808 0368 0138     		subs	r0, r0, #1
 2809              	.LVL131:
 2810 036a C0B2     		uxtb	r0, r0
 2811 036c 0628     		cmp	r0, #6
 2812 036e 7FF695AE 		bls	.L134
ARM GAS  C:\Users\czsta\AppData\Local\Temp\ccqYu3W2.s 			page 67


 325:HARDWARE/LCD/ILI93xx.c **** 	{
 2813              		.loc 1 325 0
 2814 0372 4FF0000C 		mov	ip, #0
 2815 0376 3627     		movs	r7, #54
 2816 0378 E146     		mov	r9, ip
 2817 037a A9E6     		b	.L126
 2818              	.LVL132:
 2819              	.L136:
 315:HARDWARE/LCD/ILI93xx.c **** 			case 1:dir=7;break;
 2820              		.loc 1 315 0
 2821 037c 0620     		movs	r0, #6
 2822              	.LVL133:
 2823 037e 4EE6     		b	.L108
 2824              	.LVL134:
 2825              	.L112:
 317:HARDWARE/LCD/ILI93xx.c **** 			case 3:dir=5;break;
 2826              		.loc 1 317 0
 2827 0380 0420     		movs	r0, #4
 2828 0382 4CE6     		b	.L108
 2829              	.LVL135:
 2830              	.L113:
 318:HARDWARE/LCD/ILI93xx.c **** 			case 4:dir=1;break;
 2831              		.loc 1 318 0
 2832 0384 0520     		movs	r0, #5
 2833 0386 4AE6     		b	.L108
 2834              	.LVL136:
 2835              	.L114:
 319:HARDWARE/LCD/ILI93xx.c **** 			case 5:dir=0;break;
 2836              		.loc 1 319 0
 2837 0388 0120     		movs	r0, #1
 2838 038a 48E6     		b	.L108
 2839              	.LVL137:
 2840              	.L115:
 320:HARDWARE/LCD/ILI93xx.c **** 			case 6:dir=3;break;
 2841              		.loc 1 320 0
 2842 038c 0020     		movs	r0, #0
 2843 038e 46E6     		b	.L108
 2844              	.LVL138:
 2845              	.L116:
 321:HARDWARE/LCD/ILI93xx.c **** 			case 7:dir=2;break;	     
 2846              		.loc 1 321 0
 2847 0390 0320     		movs	r0, #3
 2848 0392 44E6     		b	.L108
 2849              	.LVL139:
 2850              	.L117:
 322:HARDWARE/LCD/ILI93xx.c **** 		}
 2851              		.loc 1 322 0
 2852 0394 0220     		movs	r0, #2
 2853 0396 42E6     		b	.L108
 2854              	.LVL140:
 2855              	.L111:
 316:HARDWARE/LCD/ILI93xx.c **** 			case 2:dir=4;break;
 2856              		.loc 1 316 0
 2857 0398 0720     		movs	r0, #7
 2858 039a 40E6     		b	.L108
 2859              	.LVL141:
 2860              	.L149:
ARM GAS  C:\Users\czsta\AppData\Local\Temp\ccqYu3W2.s 			page 68


 2861 039c 0138     		subs	r0, r0, #1
 2862              	.LVL142:
 2863 039e C0B2     		uxtb	r0, r0
 2864 03a0 0628     		cmp	r0, #6
 2865 03a2 7FF67BAE 		bls	.L134
 325:HARDWARE/LCD/ILI93xx.c **** 	{
 2866              		.loc 1 325 0
 2867 03a6 4FF00009 		mov	r9, #0
 2868 03aa 8FE6     		b	.L144
 2869              	.LVL143:
 2870              	.L152:
 356:HARDWARE/LCD/ILI93xx.c **** 		if(lcddev.id==0X6804)regval|=0x02;//6804的BIT6和9341的反了	   
 2871              		.loc 1 356 0
 2872 03ac 8146     		mov	r9, r0
 2873 03ae 3627     		movs	r7, #54
 2874              	.LVL144:
 2875 03b0 CC46     		mov	ip, r9
 2876 03b2 8DE6     		b	.L126
 2877              	.L157:
 2878              		.align	2
 2879              	.L156:
 2880 03b4 00100140 		.word	1073811456
 2881 03b8 000C0140 		.word	1073810432
 2882              		.cfi_endproc
 2883              	.LFE45:
 2885              		.section	.text.LCD_DrawPoint,"ax",%progbits
 2886              		.align	1
 2887              		.p2align 2,,3
 2888              		.global	LCD_DrawPoint
 2889              		.syntax unified
 2890              		.thumb
 2891              		.thumb_func
 2892              		.fpu softvfp
 2894              	LCD_DrawPoint:
 2895              	.LFB46:
 432:HARDWARE/LCD/ILI93xx.c **** //画点
 433:HARDWARE/LCD/ILI93xx.c **** //x,y:坐标
 434:HARDWARE/LCD/ILI93xx.c **** //POINT_COLOR:此点的颜色
 435:HARDWARE/LCD/ILI93xx.c **** void LCD_DrawPoint(u16 x,u16 y)
 436:HARDWARE/LCD/ILI93xx.c **** {
 2896              		.loc 1 436 0
 2897              		.cfi_startproc
 2898              		@ args = 0, pretend = 0, frame = 0
 2899              		@ frame_needed = 0, uses_anonymous_args = 0
 2900              	.LVL145:
 2901 0000 38B5     		push	{r3, r4, r5, lr}
 2902              	.LCFI30:
 2903              		.cfi_def_cfa_offset 16
 2904              		.cfi_offset 3, -16
 2905              		.cfi_offset 4, -12
 2906              		.cfi_offset 5, -8
 2907              		.cfi_offset 14, -4
 437:HARDWARE/LCD/ILI93xx.c **** 	LCD_SetCursor(x,y);		//设置光标位置 
 2908              		.loc 1 437 0
 2909 0002 FFF7FEFF 		bl	LCD_SetCursor
 2910              	.LVL146:
 2911              	.LBB2572:
ARM GAS  C:\Users\czsta\AppData\Local\Temp\ccqYu3W2.s 			page 69


 2912              	.LBB2573:
 2913              	.LBB2574:
 2914              	.LBB2575:
  93:HARDWARE/LCD/ILI93xx.c ****  	LCD_CS_CLR; 
 2915              		.loc 1 93 0
 2916 0006 4FF48074 		mov	r4, #256
  94:HARDWARE/LCD/ILI93xx.c **** 	DATAOUT(data); 
 2917              		.loc 1 94 0
 2918 000a 4FF40072 		mov	r2, #512
  96:HARDWARE/LCD/ILI93xx.c **** 	LCD_WR_SET; 
 2919              		.loc 1 96 0
 2920 000e 8021     		movs	r1, #128
 2921              	.LBE2575:
 2922              	.LBE2574:
 154:HARDWARE/LCD/ILI93xx.c **** } 
 2923              		.loc 1 154 0
 2924 0010 0948     		ldr	r0, .L160
 2925              	.LBB2579:
 2926              	.LBB2576:
  93:HARDWARE/LCD/ILI93xx.c ****  	LCD_CS_CLR; 
 2927              		.loc 1 93 0
 2928 0012 0A4B     		ldr	r3, .L160+4
 2929              	.LBE2576:
 2930              	.LBE2579:
 154:HARDWARE/LCD/ILI93xx.c **** } 
 2931              		.loc 1 154 0
 2932 0014 0589     		ldrh	r5, [r0, #8]
 2933              	.LVL147:
 2934              	.LBB2580:
 2935              	.LBB2577:
  95:HARDWARE/LCD/ILI93xx.c **** 	LCD_WR_CLR; 
 2936              		.loc 1 95 0
 2937 0016 0A48     		ldr	r0, .L160+8
  93:HARDWARE/LCD/ILI93xx.c ****  	LCD_CS_CLR; 
 2938              		.loc 1 93 0
 2939 0018 5C61     		str	r4, [r3, #20]
  94:HARDWARE/LCD/ILI93xx.c **** 	DATAOUT(data); 
 2940              		.loc 1 94 0
 2941 001a 5A61     		str	r2, [r3, #20]
  95:HARDWARE/LCD/ILI93xx.c **** 	LCD_WR_CLR; 
 2942              		.loc 1 95 0
 2943 001c C560     		str	r5, [r0, #12]
 2944              	.LBE2577:
 2945              	.LBE2580:
 2946              	.LBE2573:
 2947              	.LBE2572:
 438:HARDWARE/LCD/ILI93xx.c **** 	LCD_WriteRAM_Prepare();	//开始写入GRAM
 439:HARDWARE/LCD/ILI93xx.c **** 	LCD_WR_DATA(POINT_COLOR); 
 2948              		.loc 1 439 0
 2949 001e 094D     		ldr	r5, .L160+12
 2950              	.LVL148:
 2951              	.LBB2583:
 2952              	.LBB2582:
 2953              	.LBB2581:
 2954              	.LBB2578:
  96:HARDWARE/LCD/ILI93xx.c **** 	LCD_WR_SET; 
 2955              		.loc 1 96 0
ARM GAS  C:\Users\czsta\AppData\Local\Temp\ccqYu3W2.s 			page 70


 2956 0020 5961     		str	r1, [r3, #20]
 2957              	.LVL149:
  97:HARDWARE/LCD/ILI93xx.c ****  	LCD_CS_SET;   
 2958              		.loc 1 97 0
 2959 0022 1961     		str	r1, [r3, #16]
  98:HARDWARE/LCD/ILI93xx.c **** }
 2960              		.loc 1 98 0
 2961 0024 1A61     		str	r2, [r3, #16]
 2962              	.LVL150:
 2963              	.LBE2578:
 2964              	.LBE2581:
 2965              	.LBE2582:
 2966              	.LBE2583:
 2967              		.loc 1 439 0
 2968 0026 1C61     		str	r4, [r3, #16]
 2969 0028 2C88     		ldrh	r4, [r5]
 2970 002a 5A61     		str	r2, [r3, #20]
 2971 002c C460     		str	r4, [r0, #12]
 2972 002e 5961     		str	r1, [r3, #20]
 2973 0030 1961     		str	r1, [r3, #16]
 2974 0032 1A61     		str	r2, [r3, #16]
 440:HARDWARE/LCD/ILI93xx.c **** }	 
 2975              		.loc 1 440 0
 2976 0034 38BD     		pop	{r3, r4, r5, pc}
 2977              	.L161:
 2978 0036 00BF     		.align	2
 2979              	.L160:
 2980 0038 00000000 		.word	lcddev
 2981 003c 00100140 		.word	1073811456
 2982 0040 000C0140 		.word	1073810432
 2983 0044 00000000 		.word	.LANCHOR2
 2984              		.cfi_endproc
 2985              	.LFE46:
 2987              		.section	.text.LCD_Fast_DrawPoint,"ax",%progbits
 2988              		.align	1
 2989              		.p2align 2,,3
 2990              		.global	LCD_Fast_DrawPoint
 2991              		.syntax unified
 2992              		.thumb
 2993              		.thumb_func
 2994              		.fpu softvfp
 2996              	LCD_Fast_DrawPoint:
 2997              	.LFB47:
 441:HARDWARE/LCD/ILI93xx.c **** //快速画点
 442:HARDWARE/LCD/ILI93xx.c **** //x,y:坐标
 443:HARDWARE/LCD/ILI93xx.c **** //color:颜色
 444:HARDWARE/LCD/ILI93xx.c **** void LCD_Fast_DrawPoint(u16 x,u16 y,u16 color)
 445:HARDWARE/LCD/ILI93xx.c **** {	   
 2998              		.loc 1 445 0
 2999              		.cfi_startproc
 3000              		@ args = 0, pretend = 0, frame = 0
 3001              		@ frame_needed = 0, uses_anonymous_args = 0
 3002              	.LVL151:
 3003 0000 2DE9F04F 		push	{r4, r5, r6, r7, r8, r9, r10, fp, lr}
 3004              	.LCFI31:
 3005              		.cfi_def_cfa_offset 36
 3006              		.cfi_offset 4, -36
ARM GAS  C:\Users\czsta\AppData\Local\Temp\ccqYu3W2.s 			page 71


 3007              		.cfi_offset 5, -32
 3008              		.cfi_offset 6, -28
 3009              		.cfi_offset 7, -24
 3010              		.cfi_offset 8, -20
 3011              		.cfi_offset 9, -16
 3012              		.cfi_offset 10, -12
 3013              		.cfi_offset 11, -8
 3014              		.cfi_offset 14, -4
 446:HARDWARE/LCD/ILI93xx.c **** 	if(lcddev.id==0X9341||lcddev.id==0X5310)
 3015              		.loc 1 446 0
 3016 0004 49F24134 		movw	r4, #37697
 3017 0008 954E     		ldr	r6, .L178
 3018 000a B388     		ldrh	r3, [r6, #4]
 3019 000c B6F80A80 		ldrh	r8, [r6, #10]
 3020 0010 A342     		cmp	r3, r4
 3021 0012 B6F80CE0 		ldrh	lr, [r6, #12]
 3022 0016 3AD0     		beq	.L170
 3023              		.loc 1 446 0 is_stmt 0 discriminator 1
 3024 0018 45F21034 		movw	r4, #21264
 3025 001c A342     		cmp	r3, r4
 3026 001e 36D0     		beq	.L170
 447:HARDWARE/LCD/ILI93xx.c **** 	{
 448:HARDWARE/LCD/ILI93xx.c **** 		LCD_WR_REG(lcddev.setxcmd); 
 449:HARDWARE/LCD/ILI93xx.c **** 		LCD_WR_DATA(x>>8);LCD_WR_DATA(x&0XFF);  			 
 450:HARDWARE/LCD/ILI93xx.c **** 		LCD_WR_REG(lcddev.setycmd); 
 451:HARDWARE/LCD/ILI93xx.c **** 		LCD_WR_DATA(y>>8);LCD_WR_DATA(y&0XFF); 		 	 
 452:HARDWARE/LCD/ILI93xx.c **** 	}else if(lcddev.id==0X5510)
 3027              		.loc 1 452 0 is_stmt 1
 3028 0020 45F21054 		movw	r4, #21776
 3029 0024 A342     		cmp	r3, r4
 3030 0026 00F08380 		beq	.L175
 453:HARDWARE/LCD/ILI93xx.c **** 	{
 454:HARDWARE/LCD/ILI93xx.c **** 		LCD_WR_REG(lcddev.setxcmd);LCD_WR_DATA(x>>8);  
 455:HARDWARE/LCD/ILI93xx.c **** 		LCD_WR_REG(lcddev.setxcmd+1);LCD_WR_DATA(x&0XFF);	  
 456:HARDWARE/LCD/ILI93xx.c **** 		LCD_WR_REG(lcddev.setycmd);LCD_WR_DATA(y>>8);  
 457:HARDWARE/LCD/ILI93xx.c **** 		LCD_WR_REG(lcddev.setycmd+1);LCD_WR_DATA(y&0XFF); 
 458:HARDWARE/LCD/ILI93xx.c **** 	}else if(lcddev.id==0X1963)
 3031              		.loc 1 458 0
 3032 002a 41F66315 		movw	r5, #6499
 3033 002e AB42     		cmp	r3, r5
 3034 0030 B479     		ldrb	r4, [r6, #6]	@ zero_extendqisi2
 3035 0032 00F0C780 		beq	.L176
 459:HARDWARE/LCD/ILI93xx.c **** 	{
 460:HARDWARE/LCD/ILI93xx.c **** 		if(lcddev.dir==0)x=lcddev.width-1-x;
 461:HARDWARE/LCD/ILI93xx.c **** 		LCD_WR_REG(lcddev.setxcmd); 
 462:HARDWARE/LCD/ILI93xx.c **** 		LCD_WR_DATA(x>>8);LCD_WR_DATA(x&0XFF); 		
 463:HARDWARE/LCD/ILI93xx.c **** 		LCD_WR_DATA(x>>8);LCD_WR_DATA(x&0XFF); 		
 464:HARDWARE/LCD/ILI93xx.c **** 		LCD_WR_REG(lcddev.setycmd); 
 465:HARDWARE/LCD/ILI93xx.c **** 		LCD_WR_DATA(y>>8);LCD_WR_DATA(y&0XFF); 		
 466:HARDWARE/LCD/ILI93xx.c **** 		LCD_WR_DATA(y>>8);LCD_WR_DATA(y&0XFF); 		
 467:HARDWARE/LCD/ILI93xx.c **** 	}else if(lcddev.id==0X6804)
 3036              		.loc 1 467 0
 3037 0036 46F60405 		movw	r5, #26628
 3038 003a AB42     		cmp	r3, r5
 3039 003c 21D0     		beq	.L177
 468:HARDWARE/LCD/ILI93xx.c **** 	{		    
 469:HARDWARE/LCD/ILI93xx.c **** 		if(lcddev.dir==1)x=lcddev.width-1-x;//横屏时处理
ARM GAS  C:\Users\czsta\AppData\Local\Temp\ccqYu3W2.s 			page 72


 470:HARDWARE/LCD/ILI93xx.c **** 		LCD_WR_REG(lcddev.setxcmd); 
 471:HARDWARE/LCD/ILI93xx.c **** 		LCD_WR_DATA(x>>8);LCD_WR_DATA(x&0XFF);			 
 472:HARDWARE/LCD/ILI93xx.c **** 		LCD_WR_REG(lcddev.setycmd); 
 473:HARDWARE/LCD/ILI93xx.c **** 		LCD_WR_DATA(y>>8);LCD_WR_DATA(y&0XFF); 		
 474:HARDWARE/LCD/ILI93xx.c **** 	}else
 475:HARDWARE/LCD/ILI93xx.c **** 	{
 476:HARDWARE/LCD/ILI93xx.c ****  		if(lcddev.dir==1)x=lcddev.width-1-x;//横屏其实就是调转x,y坐标
 3040              		.loc 1 476 0
 3041 003e 012C     		cmp	r4, #1
 3042 0040 03D1     		bne	.L171
 3043              		.loc 1 476 0 is_stmt 0 discriminator 1
 3044 0042 3388     		ldrh	r3, [r6]
 3045 0044 013B     		subs	r3, r3, #1
 3046 0046 181A     		subs	r0, r3, r0
 3047              	.LVL152:
 3048 0048 80B2     		uxth	r0, r0
 3049              	.LVL153:
 3050              	.L171:
 3051              	.LBB2612:
 3052              	.LBB2613:
 3053              	.LBB2614:
 3054              	.LBB2615:
  94:HARDWARE/LCD/ILI93xx.c **** 	DATAOUT(data); 
 3055              		.loc 1 94 0 is_stmt 1
 3056 004a 4FF40074 		mov	r4, #512
  96:HARDWARE/LCD/ILI93xx.c **** 	LCD_WR_SET; 
 3057              		.loc 1 96 0
 3058 004e 8025     		movs	r5, #128
  93:HARDWARE/LCD/ILI93xx.c ****  	LCD_CS_CLR; 
 3059              		.loc 1 93 0
 3060 0050 4FF4807C 		mov	ip, #256
 3061 0054 834B     		ldr	r3, .L178+4
  95:HARDWARE/LCD/ILI93xx.c **** 	LCD_WR_CLR; 
 3062              		.loc 1 95 0
 3063 0056 844F     		ldr	r7, .L178+8
  93:HARDWARE/LCD/ILI93xx.c ****  	LCD_CS_CLR; 
 3064              		.loc 1 93 0
 3065 0058 C3F814C0 		str	ip, [r3, #20]
  94:HARDWARE/LCD/ILI93xx.c **** 	DATAOUT(data); 
 3066              		.loc 1 94 0
 3067 005c 5C61     		str	r4, [r3, #20]
  95:HARDWARE/LCD/ILI93xx.c **** 	LCD_WR_CLR; 
 3068              		.loc 1 95 0
 3069 005e C7F80C80 		str	r8, [r7, #12]
  96:HARDWARE/LCD/ILI93xx.c **** 	LCD_WR_SET; 
 3070              		.loc 1 96 0
 3071 0062 5D61     		str	r5, [r3, #20]
  97:HARDWARE/LCD/ILI93xx.c ****  	LCD_CS_SET;   
 3072              		.loc 1 97 0
 3073 0064 1D61     		str	r5, [r3, #16]
  98:HARDWARE/LCD/ILI93xx.c **** }
 3074              		.loc 1 98 0
 3075 0066 1C61     		str	r4, [r3, #16]
 3076              	.LVL154:
 3077              	.LBE2615:
 3078              	.LBE2614:
 141:HARDWARE/LCD/ILI93xx.c **** }   
ARM GAS  C:\Users\czsta\AppData\Local\Temp\ccqYu3W2.s 			page 73


 3079              		.loc 1 141 0
 3080 0068 C3F810C0 		str	ip, [r3, #16]
 3081 006c 5C61     		str	r4, [r3, #20]
 3082 006e F860     		str	r0, [r7, #12]
 3083 0070 5D61     		str	r5, [r3, #20]
 3084 0072 1D61     		str	r5, [r3, #16]
 3085 0074 1C61     		str	r4, [r3, #16]
 3086              	.LVL155:
 3087              	.LBE2613:
 3088              	.LBE2612:
 3089              	.LBB2616:
 3090              	.LBB2617:
 3091              	.LBB2618:
 3092              	.LBB2619:
  93:HARDWARE/LCD/ILI93xx.c ****  	LCD_CS_CLR; 
 3093              		.loc 1 93 0
 3094 0076 C3F814C0 		str	ip, [r3, #20]
  94:HARDWARE/LCD/ILI93xx.c **** 	DATAOUT(data); 
 3095              		.loc 1 94 0
 3096 007a 5C61     		str	r4, [r3, #20]
  95:HARDWARE/LCD/ILI93xx.c **** 	LCD_WR_CLR; 
 3097              		.loc 1 95 0
 3098 007c C7F80CE0 		str	lr, [r7, #12]
 3099 0080 36E0     		b	.L173
 3100              	.LVL156:
 3101              	.L177:
 3102              	.LBE2619:
 3103              	.LBE2618:
 3104              	.LBE2617:
 3105              	.LBE2616:
 469:HARDWARE/LCD/ILI93xx.c **** 		LCD_WR_REG(lcddev.setxcmd); 
 3106              		.loc 1 469 0
 3107 0082 012C     		cmp	r4, #1
 3108 0084 03D1     		bne	.L170
 469:HARDWARE/LCD/ILI93xx.c **** 		LCD_WR_REG(lcddev.setxcmd); 
 3109              		.loc 1 469 0 is_stmt 0 discriminator 1
 3110 0086 3388     		ldrh	r3, [r6]
 3111 0088 013B     		subs	r3, r3, #1
 3112 008a 181A     		subs	r0, r3, r0
 3113              	.LVL157:
 3114 008c 80B2     		uxth	r0, r0
 3115              	.LVL158:
 3116              	.L170:
 3117              	.LBB2628:
 3118              	.LBB2629:
  94:HARDWARE/LCD/ILI93xx.c **** 	DATAOUT(data); 
 3119              		.loc 1 94 0 is_stmt 1
 3120 008e 4FF40074 		mov	r4, #512
  96:HARDWARE/LCD/ILI93xx.c **** 	LCD_WR_SET; 
 3121              		.loc 1 96 0
 3122 0092 8025     		movs	r5, #128
  93:HARDWARE/LCD/ILI93xx.c ****  	LCD_CS_CLR; 
 3123              		.loc 1 93 0
 3124 0094 4FF4807C 		mov	ip, #256
 3125 0098 724B     		ldr	r3, .L178+4
  95:HARDWARE/LCD/ILI93xx.c **** 	LCD_WR_CLR; 
 3126              		.loc 1 95 0
ARM GAS  C:\Users\czsta\AppData\Local\Temp\ccqYu3W2.s 			page 74


 3127 009a 734F     		ldr	r7, .L178+8
 3128              	.LBE2629:
 3129              	.LBE2628:
 471:HARDWARE/LCD/ILI93xx.c **** 		LCD_WR_REG(lcddev.setycmd); 
 3130              		.loc 1 471 0
 3131 009c 4FEA1029 		lsr	r9, r0, #8
 3132 00a0 5FFA80FA 		uxtb	r10, r0
 3133              	.LBB2633:
 3134              	.LBB2630:
  93:HARDWARE/LCD/ILI93xx.c ****  	LCD_CS_CLR; 
 3135              		.loc 1 93 0
 3136 00a4 C3F814C0 		str	ip, [r3, #20]
 3137              	.LBE2630:
 3138              	.LBE2633:
 473:HARDWARE/LCD/ILI93xx.c **** 	}else
 3139              		.loc 1 473 0
 3140 00a8 080A     		lsrs	r0, r1, #8
 3141              	.LVL159:
 3142              	.LBB2634:
 3143              	.LBB2631:
  94:HARDWARE/LCD/ILI93xx.c **** 	DATAOUT(data); 
 3144              		.loc 1 94 0
 3145 00aa 5C61     		str	r4, [r3, #20]
 3146              	.LBE2631:
 3147              	.LBE2634:
 473:HARDWARE/LCD/ILI93xx.c **** 	}else
 3148              		.loc 1 473 0
 3149 00ac C9B2     		uxtb	r1, r1
 3150              	.LVL160:
 3151              	.LBB2635:
 3152              	.LBB2632:
  95:HARDWARE/LCD/ILI93xx.c **** 	LCD_WR_CLR; 
 3153              		.loc 1 95 0
 3154 00ae C7F80C80 		str	r8, [r7, #12]
  96:HARDWARE/LCD/ILI93xx.c **** 	LCD_WR_SET; 
 3155              		.loc 1 96 0
 3156 00b2 5D61     		str	r5, [r3, #20]
  97:HARDWARE/LCD/ILI93xx.c ****  	LCD_CS_SET;   
 3157              		.loc 1 97 0
 3158 00b4 1D61     		str	r5, [r3, #16]
  98:HARDWARE/LCD/ILI93xx.c **** }
 3159              		.loc 1 98 0
 3160 00b6 1C61     		str	r4, [r3, #16]
 3161              	.LVL161:
 3162              	.LBE2632:
 3163              	.LBE2635:
 471:HARDWARE/LCD/ILI93xx.c **** 		LCD_WR_REG(lcddev.setycmd); 
 3164              		.loc 1 471 0
 3165 00b8 C3F810C0 		str	ip, [r3, #16]
 3166 00bc 5C61     		str	r4, [r3, #20]
 3167 00be C7F80C90 		str	r9, [r7, #12]
 3168 00c2 5D61     		str	r5, [r3, #20]
 3169 00c4 1D61     		str	r5, [r3, #16]
 3170 00c6 1C61     		str	r4, [r3, #16]
 3171 00c8 C3F810C0 		str	ip, [r3, #16]
 3172 00cc 5C61     		str	r4, [r3, #20]
 3173 00ce C7F80CA0 		str	r10, [r7, #12]
ARM GAS  C:\Users\czsta\AppData\Local\Temp\ccqYu3W2.s 			page 75


 3174 00d2 5D61     		str	r5, [r3, #20]
 3175 00d4 1D61     		str	r5, [r3, #16]
 3176 00d6 1C61     		str	r4, [r3, #16]
 3177              	.LVL162:
 3178              	.LBB2636:
 3179              	.LBB2637:
  93:HARDWARE/LCD/ILI93xx.c ****  	LCD_CS_CLR; 
 3180              		.loc 1 93 0
 3181 00d8 C3F814C0 		str	ip, [r3, #20]
  94:HARDWARE/LCD/ILI93xx.c **** 	DATAOUT(data); 
 3182              		.loc 1 94 0
 3183 00dc 5C61     		str	r4, [r3, #20]
  95:HARDWARE/LCD/ILI93xx.c **** 	LCD_WR_CLR; 
 3184              		.loc 1 95 0
 3185 00de C7F80CE0 		str	lr, [r7, #12]
 3186              	.LVL163:
 3187              	.L174:
  96:HARDWARE/LCD/ILI93xx.c **** 	LCD_WR_SET; 
 3188              		.loc 1 96 0
 3189 00e2 5D61     		str	r5, [r3, #20]
  97:HARDWARE/LCD/ILI93xx.c ****  	LCD_CS_SET;   
 3190              		.loc 1 97 0
 3191 00e4 1D61     		str	r5, [r3, #16]
  98:HARDWARE/LCD/ILI93xx.c **** }
 3192              		.loc 1 98 0
 3193 00e6 1C61     		str	r4, [r3, #16]
 3194              	.LBE2637:
 3195              	.LBE2636:
 473:HARDWARE/LCD/ILI93xx.c **** 	}else
 3196              		.loc 1 473 0
 3197 00e8 C3F810C0 		str	ip, [r3, #16]
 3198 00ec 5C61     		str	r4, [r3, #20]
 3199 00ee F860     		str	r0, [r7, #12]
 3200              	.L173:
 3201              	.LBB2638:
 3202              	.LBB2624:
 3203              	.LBB2622:
 3204              	.LBB2620:
  96:HARDWARE/LCD/ILI93xx.c **** 	LCD_WR_SET; 
 3205              		.loc 1 96 0
 3206 00f0 5D61     		str	r5, [r3, #20]
 3207              	.LBE2620:
 3208              	.LBE2622:
 3209              	.LBE2624:
 3210              	.LBE2638:
 477:HARDWARE/LCD/ILI93xx.c **** 		LCD_WriteReg(lcddev.setxcmd,x);
 478:HARDWARE/LCD/ILI93xx.c **** 		LCD_WriteReg(lcddev.setycmd,y);
 479:HARDWARE/LCD/ILI93xx.c **** 	}	
 480:HARDWARE/LCD/ILI93xx.c **** 	LCD_RS_CLR;
 481:HARDWARE/LCD/ILI93xx.c ****  	LCD_CS_CLR; 
 482:HARDWARE/LCD/ILI93xx.c **** 	DATAOUT(lcddev.wramcmd);//写指令  
 483:HARDWARE/LCD/ILI93xx.c **** 	LCD_WR_CLR; 
 3211              		.loc 1 483 0
 3212 00f2 8020     		movs	r0, #128
 3213              	.LBB2639:
 3214              	.LBB2625:
 3215              	.LBB2623:
ARM GAS  C:\Users\czsta\AppData\Local\Temp\ccqYu3W2.s 			page 76


 3216              	.LBB2621:
  97:HARDWARE/LCD/ILI93xx.c ****  	LCD_CS_SET;   
 3217              		.loc 1 97 0
 3218 00f4 1D61     		str	r5, [r3, #16]
  98:HARDWARE/LCD/ILI93xx.c **** }
 3219              		.loc 1 98 0
 3220 00f6 1C61     		str	r4, [r3, #16]
 3221              	.LBE2621:
 3222              	.LBE2623:
 141:HARDWARE/LCD/ILI93xx.c **** }   
 3223              		.loc 1 141 0
 3224 00f8 C3F810C0 		str	ip, [r3, #16]
 3225 00fc 5C61     		str	r4, [r3, #20]
 3226 00fe F960     		str	r1, [r7, #12]
 3227 0100 5D61     		str	r5, [r3, #20]
 3228              	.LBE2625:
 3229              	.LBE2639:
 481:HARDWARE/LCD/ILI93xx.c **** 	DATAOUT(lcddev.wramcmd);//写指令  
 3230              		.loc 1 481 0
 3231 0102 4FF40071 		mov	r1, #512
 3232              	.LBB2640:
 3233              	.LBB2626:
 141:HARDWARE/LCD/ILI93xx.c **** }   
 3234              		.loc 1 141 0
 3235 0106 1D61     		str	r5, [r3, #16]
 3236              	.LBE2626:
 3237              	.LBE2640:
 480:HARDWARE/LCD/ILI93xx.c ****  	LCD_CS_CLR; 
 3238              		.loc 1 480 0
 3239 0108 4FF48075 		mov	r5, #256
 3240              	.LBB2641:
 3241              	.LBB2627:
 141:HARDWARE/LCD/ILI93xx.c **** }   
 3242              		.loc 1 141 0
 3243 010c 1C61     		str	r4, [r3, #16]
 3244              	.LBE2627:
 3245              	.LBE2641:
 482:HARDWARE/LCD/ILI93xx.c **** 	LCD_WR_CLR; 
 3246              		.loc 1 482 0
 3247 010e 3689     		ldrh	r6, [r6, #8]
 480:HARDWARE/LCD/ILI93xx.c ****  	LCD_CS_CLR; 
 3248              		.loc 1 480 0
 3249 0110 544B     		ldr	r3, .L178+4
 482:HARDWARE/LCD/ILI93xx.c **** 	LCD_WR_CLR; 
 3250              		.loc 1 482 0
 3251 0112 554C     		ldr	r4, .L178+8
 480:HARDWARE/LCD/ILI93xx.c ****  	LCD_CS_CLR; 
 3252              		.loc 1 480 0
 3253 0114 5D61     		str	r5, [r3, #20]
 481:HARDWARE/LCD/ILI93xx.c **** 	DATAOUT(lcddev.wramcmd);//写指令  
 3254              		.loc 1 481 0
 3255 0116 5961     		str	r1, [r3, #20]
 482:HARDWARE/LCD/ILI93xx.c **** 	LCD_WR_CLR; 
 3256              		.loc 1 482 0
 3257 0118 E660     		str	r6, [r4, #12]
 3258              		.loc 1 483 0
 3259 011a 5861     		str	r0, [r3, #20]
ARM GAS  C:\Users\czsta\AppData\Local\Temp\ccqYu3W2.s 			page 77


 484:HARDWARE/LCD/ILI93xx.c **** 	LCD_WR_SET; 
 3260              		.loc 1 484 0
 3261 011c 1861     		str	r0, [r3, #16]
 485:HARDWARE/LCD/ILI93xx.c ****  	LCD_CS_SET; 
 3262              		.loc 1 485 0
 3263 011e 1961     		str	r1, [r3, #16]
 486:HARDWARE/LCD/ILI93xx.c **** 	LCD_WR_DATA(color);		//写数据
 3264              		.loc 1 486 0
 3265 0120 1D61     		str	r5, [r3, #16]
 3266 0122 5961     		str	r1, [r3, #20]
 3267 0124 E260     		str	r2, [r4, #12]
 3268 0126 5861     		str	r0, [r3, #20]
 3269 0128 1861     		str	r0, [r3, #16]
 3270 012a 1961     		str	r1, [r3, #16]
 487:HARDWARE/LCD/ILI93xx.c **** }
 3271              		.loc 1 487 0
 3272 012c BDE8F08F 		pop	{r4, r5, r6, r7, r8, r9, r10, fp, pc}
 3273              	.LVL164:
 3274              	.L175:
 3275              	.LBB2642:
 3276              	.LBB2643:
  94:HARDWARE/LCD/ILI93xx.c **** 	DATAOUT(data); 
 3277              		.loc 1 94 0
 3278 0130 4FF40074 		mov	r4, #512
  93:HARDWARE/LCD/ILI93xx.c ****  	LCD_CS_CLR; 
 3279              		.loc 1 93 0
 3280 0134 4FF4807C 		mov	ip, #256
  96:HARDWARE/LCD/ILI93xx.c **** 	LCD_WR_SET; 
 3281              		.loc 1 96 0
 3282 0138 8025     		movs	r5, #128
  93:HARDWARE/LCD/ILI93xx.c ****  	LCD_CS_CLR; 
 3283              		.loc 1 93 0
 3284 013a 4A4B     		ldr	r3, .L178+4
  95:HARDWARE/LCD/ILI93xx.c **** 	LCD_WR_CLR; 
 3285              		.loc 1 95 0
 3286 013c 4A4F     		ldr	r7, .L178+8
 3287              	.LBE2643:
 3288              	.LBE2642:
 455:HARDWARE/LCD/ILI93xx.c **** 		LCD_WR_REG(lcddev.setycmd);LCD_WR_DATA(y>>8);  
 3289              		.loc 1 455 0
 3290 013e 08F1010A 		add	r10, r8, #1
 457:HARDWARE/LCD/ILI93xx.c **** 	}else if(lcddev.id==0X1963)
 3291              		.loc 1 457 0
 3292 0142 0EF10109 		add	r9, lr, #1
 3293              	.LBB2649:
 3294              	.LBB2644:
  93:HARDWARE/LCD/ILI93xx.c ****  	LCD_CS_CLR; 
 3295              		.loc 1 93 0
 3296 0146 C3F814C0 		str	ip, [r3, #20]
 3297              	.LBE2644:
 3298              	.LBE2649:
 454:HARDWARE/LCD/ILI93xx.c **** 		LCD_WR_REG(lcddev.setxcmd+1);LCD_WR_DATA(x&0XFF);	  
 3299              		.loc 1 454 0
 3300 014a 4FEA102B 		lsr	fp, r0, #8
 3301              	.LBB2650:
 3302              	.LBB2645:
  94:HARDWARE/LCD/ILI93xx.c **** 	DATAOUT(data); 
ARM GAS  C:\Users\czsta\AppData\Local\Temp\ccqYu3W2.s 			page 78


 3303              		.loc 1 94 0
 3304 014e 5C61     		str	r4, [r3, #20]
 3305              	.LBE2645:
 3306              	.LBE2650:
 3307              	.LBB2651:
 3308              	.LBB2652:
  95:HARDWARE/LCD/ILI93xx.c **** 	LCD_WR_CLR; 
 3309              		.loc 1 95 0
 3310 0150 1FFA8AFA 		uxth	r10, r10
 3311              	.LBE2652:
 3312              	.LBE2651:
 3313              	.LBB2654:
 3314              	.LBB2646:
 3315 0154 C7F80C80 		str	r8, [r7, #12]
 3316              	.LBE2646:
 3317              	.LBE2654:
 3318              	.LBB2655:
 3319              	.LBB2656:
 3320 0158 1FFA89F9 		uxth	r9, r9
 3321              	.LBE2656:
 3322              	.LBE2655:
 455:HARDWARE/LCD/ILI93xx.c **** 		LCD_WR_REG(lcddev.setycmd);LCD_WR_DATA(y>>8);  
 3323              		.loc 1 455 0
 3324 015c 5FFA80F8 		uxtb	r8, r0
 456:HARDWARE/LCD/ILI93xx.c **** 		LCD_WR_REG(lcddev.setycmd+1);LCD_WR_DATA(y&0XFF); 
 3325              		.loc 1 456 0
 3326 0160 080A     		lsrs	r0, r1, #8
 3327              	.LVL165:
 3328              	.LBB2658:
 3329              	.LBB2647:
  96:HARDWARE/LCD/ILI93xx.c **** 	LCD_WR_SET; 
 3330              		.loc 1 96 0
 3331 0162 5D61     		str	r5, [r3, #20]
 3332              	.LBE2647:
 3333              	.LBE2658:
 457:HARDWARE/LCD/ILI93xx.c **** 	}else if(lcddev.id==0X1963)
 3334              		.loc 1 457 0
 3335 0164 C9B2     		uxtb	r1, r1
 3336              	.LVL166:
 3337              	.LBB2659:
 3338              	.LBB2648:
  97:HARDWARE/LCD/ILI93xx.c ****  	LCD_CS_SET;   
 3339              		.loc 1 97 0
 3340 0166 1D61     		str	r5, [r3, #16]
  98:HARDWARE/LCD/ILI93xx.c **** }
 3341              		.loc 1 98 0
 3342 0168 1C61     		str	r4, [r3, #16]
 3343              	.LVL167:
 3344              	.LBE2648:
 3345              	.LBE2659:
 454:HARDWARE/LCD/ILI93xx.c **** 		LCD_WR_REG(lcddev.setxcmd+1);LCD_WR_DATA(x&0XFF);	  
 3346              		.loc 1 454 0
 3347 016a C3F810C0 		str	ip, [r3, #16]
 3348 016e 5C61     		str	r4, [r3, #20]
 3349 0170 C7F80CB0 		str	fp, [r7, #12]
 3350 0174 5D61     		str	r5, [r3, #20]
 3351 0176 1D61     		str	r5, [r3, #16]
ARM GAS  C:\Users\czsta\AppData\Local\Temp\ccqYu3W2.s 			page 79


 3352 0178 1C61     		str	r4, [r3, #16]
 3353              	.LVL168:
 3354              	.LBB2660:
 3355              	.LBB2653:
  93:HARDWARE/LCD/ILI93xx.c ****  	LCD_CS_CLR; 
 3356              		.loc 1 93 0
 3357 017a C3F814C0 		str	ip, [r3, #20]
  94:HARDWARE/LCD/ILI93xx.c **** 	DATAOUT(data); 
 3358              		.loc 1 94 0
 3359 017e 5C61     		str	r4, [r3, #20]
  95:HARDWARE/LCD/ILI93xx.c **** 	LCD_WR_CLR; 
 3360              		.loc 1 95 0
 3361 0180 C7F80CA0 		str	r10, [r7, #12]
  96:HARDWARE/LCD/ILI93xx.c **** 	LCD_WR_SET; 
 3362              		.loc 1 96 0
 3363 0184 5D61     		str	r5, [r3, #20]
  97:HARDWARE/LCD/ILI93xx.c ****  	LCD_CS_SET;   
 3364              		.loc 1 97 0
 3365 0186 1D61     		str	r5, [r3, #16]
  98:HARDWARE/LCD/ILI93xx.c **** }
 3366              		.loc 1 98 0
 3367 0188 1C61     		str	r4, [r3, #16]
 3368              	.LVL169:
 3369              	.LBE2653:
 3370              	.LBE2660:
 455:HARDWARE/LCD/ILI93xx.c **** 		LCD_WR_REG(lcddev.setycmd);LCD_WR_DATA(y>>8);  
 3371              		.loc 1 455 0
 3372 018a C3F810C0 		str	ip, [r3, #16]
 3373 018e 5C61     		str	r4, [r3, #20]
 3374 0190 C7F80C80 		str	r8, [r7, #12]
 3375 0194 5D61     		str	r5, [r3, #20]
 3376 0196 1D61     		str	r5, [r3, #16]
 3377 0198 1C61     		str	r4, [r3, #16]
 3378              	.LVL170:
 3379              	.LBB2661:
 3380              	.LBB2662:
  93:HARDWARE/LCD/ILI93xx.c ****  	LCD_CS_CLR; 
 3381              		.loc 1 93 0
 3382 019a C3F814C0 		str	ip, [r3, #20]
  94:HARDWARE/LCD/ILI93xx.c **** 	DATAOUT(data); 
 3383              		.loc 1 94 0
 3384 019e 5C61     		str	r4, [r3, #20]
  95:HARDWARE/LCD/ILI93xx.c **** 	LCD_WR_CLR; 
 3385              		.loc 1 95 0
 3386 01a0 C7F80CE0 		str	lr, [r7, #12]
  96:HARDWARE/LCD/ILI93xx.c **** 	LCD_WR_SET; 
 3387              		.loc 1 96 0
 3388 01a4 5D61     		str	r5, [r3, #20]
  97:HARDWARE/LCD/ILI93xx.c ****  	LCD_CS_SET;   
 3389              		.loc 1 97 0
 3390 01a6 1D61     		str	r5, [r3, #16]
  98:HARDWARE/LCD/ILI93xx.c **** }
 3391              		.loc 1 98 0
 3392 01a8 1C61     		str	r4, [r3, #16]
 3393              	.LVL171:
 3394              	.LBE2662:
 3395              	.LBE2661:
ARM GAS  C:\Users\czsta\AppData\Local\Temp\ccqYu3W2.s 			page 80


 456:HARDWARE/LCD/ILI93xx.c **** 		LCD_WR_REG(lcddev.setycmd+1);LCD_WR_DATA(y&0XFF); 
 3396              		.loc 1 456 0
 3397 01aa C3F810C0 		str	ip, [r3, #16]
 3398 01ae 5C61     		str	r4, [r3, #20]
 3399 01b0 F860     		str	r0, [r7, #12]
 3400 01b2 5D61     		str	r5, [r3, #20]
 3401 01b4 1D61     		str	r5, [r3, #16]
 3402 01b6 1C61     		str	r4, [r3, #16]
 3403              	.LVL172:
 3404              	.LBB2663:
 3405              	.LBB2657:
  93:HARDWARE/LCD/ILI93xx.c ****  	LCD_CS_CLR; 
 3406              		.loc 1 93 0
 3407 01b8 C3F814C0 		str	ip, [r3, #20]
  94:HARDWARE/LCD/ILI93xx.c **** 	DATAOUT(data); 
 3408              		.loc 1 94 0
 3409 01bc 5C61     		str	r4, [r3, #20]
  95:HARDWARE/LCD/ILI93xx.c **** 	LCD_WR_CLR; 
 3410              		.loc 1 95 0
 3411 01be C7F80C90 		str	r9, [r7, #12]
 3412 01c2 95E7     		b	.L173
 3413              	.LVL173:
 3414              	.L176:
 3415              	.LBE2657:
 3416              	.LBE2663:
 460:HARDWARE/LCD/ILI93xx.c **** 		LCD_WR_REG(lcddev.setxcmd); 
 3417              		.loc 1 460 0
 3418 01c4 1CB9     		cbnz	r4, .L168
 460:HARDWARE/LCD/ILI93xx.c **** 		LCD_WR_REG(lcddev.setxcmd); 
 3419              		.loc 1 460 0 is_stmt 0 discriminator 1
 3420 01c6 3388     		ldrh	r3, [r6]
 3421 01c8 013B     		subs	r3, r3, #1
 3422 01ca 181A     		subs	r0, r3, r0
 3423              	.LVL174:
 3424 01cc 80B2     		uxth	r0, r0
 3425              	.LVL175:
 3426              	.L168:
 3427              	.LBB2664:
 3428              	.LBB2665:
  94:HARDWARE/LCD/ILI93xx.c **** 	DATAOUT(data); 
 3429              		.loc 1 94 0 is_stmt 1
 3430 01ce 4FF40074 		mov	r4, #512
  96:HARDWARE/LCD/ILI93xx.c **** 	LCD_WR_SET; 
 3431              		.loc 1 96 0
 3432 01d2 8025     		movs	r5, #128
  93:HARDWARE/LCD/ILI93xx.c ****  	LCD_CS_CLR; 
 3433              		.loc 1 93 0
 3434 01d4 4FF4807C 		mov	ip, #256
 3435 01d8 224B     		ldr	r3, .L178+4
  95:HARDWARE/LCD/ILI93xx.c **** 	LCD_WR_CLR; 
 3436              		.loc 1 95 0
 3437 01da 234F     		ldr	r7, .L178+8
 3438              	.LBE2665:
 3439              	.LBE2664:
 462:HARDWARE/LCD/ILI93xx.c **** 		LCD_WR_DATA(x>>8);LCD_WR_DATA(x&0XFF); 		
 3440              		.loc 1 462 0
 3441 01dc 4FEA1029 		lsr	r9, r0, #8
ARM GAS  C:\Users\czsta\AppData\Local\Temp\ccqYu3W2.s 			page 81


 3442 01e0 5FFA80FA 		uxtb	r10, r0
 465:HARDWARE/LCD/ILI93xx.c **** 		LCD_WR_DATA(y>>8);LCD_WR_DATA(y&0XFF); 		
 3443              		.loc 1 465 0
 3444 01e4 080A     		lsrs	r0, r1, #8
 3445              	.LVL176:
 3446 01e6 C9B2     		uxtb	r1, r1
 3447              	.LVL177:
 3448              	.LBB2667:
 3449              	.LBB2666:
  93:HARDWARE/LCD/ILI93xx.c ****  	LCD_CS_CLR; 
 3450              		.loc 1 93 0
 3451 01e8 C3F814C0 		str	ip, [r3, #20]
  94:HARDWARE/LCD/ILI93xx.c **** 	DATAOUT(data); 
 3452              		.loc 1 94 0
 3453 01ec 5C61     		str	r4, [r3, #20]
  95:HARDWARE/LCD/ILI93xx.c **** 	LCD_WR_CLR; 
 3454              		.loc 1 95 0
 3455 01ee C7F80C80 		str	r8, [r7, #12]
  96:HARDWARE/LCD/ILI93xx.c **** 	LCD_WR_SET; 
 3456              		.loc 1 96 0
 3457 01f2 5D61     		str	r5, [r3, #20]
  97:HARDWARE/LCD/ILI93xx.c ****  	LCD_CS_SET;   
 3458              		.loc 1 97 0
 3459 01f4 1D61     		str	r5, [r3, #16]
  98:HARDWARE/LCD/ILI93xx.c **** }
 3460              		.loc 1 98 0
 3461 01f6 1C61     		str	r4, [r3, #16]
 3462              	.LVL178:
 3463              	.LBE2666:
 3464              	.LBE2667:
 462:HARDWARE/LCD/ILI93xx.c **** 		LCD_WR_DATA(x>>8);LCD_WR_DATA(x&0XFF); 		
 3465              		.loc 1 462 0
 3466 01f8 C3F810C0 		str	ip, [r3, #16]
 3467 01fc 5C61     		str	r4, [r3, #20]
 3468 01fe C7F80C90 		str	r9, [r7, #12]
 3469 0202 5D61     		str	r5, [r3, #20]
 3470 0204 1D61     		str	r5, [r3, #16]
 3471 0206 1C61     		str	r4, [r3, #16]
 3472 0208 C3F810C0 		str	ip, [r3, #16]
 3473 020c 5C61     		str	r4, [r3, #20]
 3474 020e C7F80CA0 		str	r10, [r7, #12]
 3475 0212 5D61     		str	r5, [r3, #20]
 3476 0214 1D61     		str	r5, [r3, #16]
 3477 0216 1C61     		str	r4, [r3, #16]
 463:HARDWARE/LCD/ILI93xx.c **** 		LCD_WR_REG(lcddev.setycmd); 
 3478              		.loc 1 463 0
 3479 0218 C3F810C0 		str	ip, [r3, #16]
 3480 021c 5C61     		str	r4, [r3, #20]
 3481 021e C7F80C90 		str	r9, [r7, #12]
 3482 0222 5D61     		str	r5, [r3, #20]
 3483 0224 1D61     		str	r5, [r3, #16]
 3484 0226 1C61     		str	r4, [r3, #16]
 3485 0228 C3F810C0 		str	ip, [r3, #16]
 3486 022c 5C61     		str	r4, [r3, #20]
 3487 022e C7F80CA0 		str	r10, [r7, #12]
 3488 0232 5D61     		str	r5, [r3, #20]
 3489 0234 1D61     		str	r5, [r3, #16]
ARM GAS  C:\Users\czsta\AppData\Local\Temp\ccqYu3W2.s 			page 82


 3490 0236 1C61     		str	r4, [r3, #16]
 3491              	.LVL179:
 3492              	.LBB2668:
 3493              	.LBB2669:
  93:HARDWARE/LCD/ILI93xx.c ****  	LCD_CS_CLR; 
 3494              		.loc 1 93 0
 3495 0238 C3F814C0 		str	ip, [r3, #20]
  94:HARDWARE/LCD/ILI93xx.c **** 	DATAOUT(data); 
 3496              		.loc 1 94 0
 3497 023c 5C61     		str	r4, [r3, #20]
  95:HARDWARE/LCD/ILI93xx.c **** 	LCD_WR_CLR; 
 3498              		.loc 1 95 0
 3499 023e C7F80CE0 		str	lr, [r7, #12]
  96:HARDWARE/LCD/ILI93xx.c **** 	LCD_WR_SET; 
 3500              		.loc 1 96 0
 3501 0242 5D61     		str	r5, [r3, #20]
  97:HARDWARE/LCD/ILI93xx.c ****  	LCD_CS_SET;   
 3502              		.loc 1 97 0
 3503 0244 1D61     		str	r5, [r3, #16]
  98:HARDWARE/LCD/ILI93xx.c **** }
 3504              		.loc 1 98 0
 3505 0246 1C61     		str	r4, [r3, #16]
 3506              	.LVL180:
 3507              	.LBE2669:
 3508              	.LBE2668:
 465:HARDWARE/LCD/ILI93xx.c **** 		LCD_WR_DATA(y>>8);LCD_WR_DATA(y&0XFF); 		
 3509              		.loc 1 465 0
 3510 0248 C3F810C0 		str	ip, [r3, #16]
 3511 024c 5C61     		str	r4, [r3, #20]
 3512 024e F860     		str	r0, [r7, #12]
 3513 0250 5D61     		str	r5, [r3, #20]
 3514 0252 1D61     		str	r5, [r3, #16]
 3515 0254 1C61     		str	r4, [r3, #16]
 3516 0256 C3F810C0 		str	ip, [r3, #16]
 3517 025a 5C61     		str	r4, [r3, #20]
 3518 025c F960     		str	r1, [r7, #12]
 3519 025e 40E7     		b	.L174
 3520              	.L179:
 3521              		.align	2
 3522              	.L178:
 3523 0260 00000000 		.word	lcddev
 3524 0264 00100140 		.word	1073811456
 3525 0268 000C0140 		.word	1073810432
 3526              		.cfi_endproc
 3527              	.LFE47:
 3529              		.global	__aeabi_i2d
 3530              		.global	__aeabi_dmul
 3531              		.global	__aeabi_d2uiz
 3532              		.section	.text.LCD_SSD_BackLightSet,"ax",%progbits
 3533              		.align	1
 3534              		.p2align 2,,3
 3535              		.global	LCD_SSD_BackLightSet
 3536              		.syntax unified
 3537              		.thumb
 3538              		.thumb_func
 3539              		.fpu softvfp
 3541              	LCD_SSD_BackLightSet:
ARM GAS  C:\Users\czsta\AppData\Local\Temp\ccqYu3W2.s 			page 83


 3542              	.LFB48:
 488:HARDWARE/LCD/ILI93xx.c **** //SSD1963 背光设置
 489:HARDWARE/LCD/ILI93xx.c **** //pwm:背光等级,0~100.越大越亮.
 490:HARDWARE/LCD/ILI93xx.c **** void LCD_SSD_BackLightSet(u8 pwm)
 491:HARDWARE/LCD/ILI93xx.c **** {	
 3543              		.loc 1 491 0
 3544              		.cfi_startproc
 3545              		@ args = 0, pretend = 0, frame = 0
 3546              		@ frame_needed = 0, uses_anonymous_args = 0
 3547              	.LVL181:
 3548 0000 2DE9F041 		push	{r4, r5, r6, r7, r8, lr}
 3549              	.LCFI32:
 3550              		.cfi_def_cfa_offset 24
 3551              		.cfi_offset 4, -24
 3552              		.cfi_offset 5, -20
 3553              		.cfi_offset 6, -16
 3554              		.cfi_offset 7, -12
 3555              		.cfi_offset 8, -8
 3556              		.cfi_offset 14, -4
 3557              	.LBB2670:
 3558              	.LBB2671:
  95:HARDWARE/LCD/ILI93xx.c **** 	LCD_WR_CLR; 
 3559              		.loc 1 95 0
 3560 0004 BE22     		movs	r2, #190
  94:HARDWARE/LCD/ILI93xx.c **** 	DATAOUT(data); 
 3561              		.loc 1 94 0
 3562 0006 4FF40075 		mov	r5, #512
  96:HARDWARE/LCD/ILI93xx.c **** 	LCD_WR_SET; 
 3563              		.loc 1 96 0
 3564 000a 8026     		movs	r6, #128
  93:HARDWARE/LCD/ILI93xx.c ****  	LCD_CS_CLR; 
 3565              		.loc 1 93 0
 3566 000c 4FF48078 		mov	r8, #256
 3567              	.LBE2671:
 3568              	.LBE2670:
 492:HARDWARE/LCD/ILI93xx.c **** 	LCD_WR_REG(0xBE);	//配置PWM输出
 493:HARDWARE/LCD/ILI93xx.c **** 	LCD_WR_DATA(0x05);	//1设置PWM频率
 3569              		.loc 1 493 0
 3570 0010 0523     		movs	r3, #5
 3571              	.LBB2673:
 3572              	.LBB2672:
  93:HARDWARE/LCD/ILI93xx.c ****  	LCD_CS_CLR; 
 3573              		.loc 1 93 0
 3574 0012 234C     		ldr	r4, .L182+8
  95:HARDWARE/LCD/ILI93xx.c **** 	LCD_WR_CLR; 
 3575              		.loc 1 95 0
 3576 0014 234F     		ldr	r7, .L182+12
  93:HARDWARE/LCD/ILI93xx.c ****  	LCD_CS_CLR; 
 3577              		.loc 1 93 0
 3578 0016 C4F81480 		str	r8, [r4, #20]
  94:HARDWARE/LCD/ILI93xx.c **** 	DATAOUT(data); 
 3579              		.loc 1 94 0
 3580 001a 6561     		str	r5, [r4, #20]
  95:HARDWARE/LCD/ILI93xx.c **** 	LCD_WR_CLR; 
 3581              		.loc 1 95 0
 3582 001c FA60     		str	r2, [r7, #12]
  96:HARDWARE/LCD/ILI93xx.c **** 	LCD_WR_SET; 
ARM GAS  C:\Users\czsta\AppData\Local\Temp\ccqYu3W2.s 			page 84


 3583              		.loc 1 96 0
 3584 001e 6661     		str	r6, [r4, #20]
  97:HARDWARE/LCD/ILI93xx.c ****  	LCD_CS_SET;   
 3585              		.loc 1 97 0
 3586 0020 2661     		str	r6, [r4, #16]
  98:HARDWARE/LCD/ILI93xx.c **** }
 3587              		.loc 1 98 0
 3588 0022 2561     		str	r5, [r4, #16]
 3589              	.LVL182:
 3590              	.LBE2672:
 3591              	.LBE2673:
 3592              		.loc 1 493 0
 3593 0024 C4F81080 		str	r8, [r4, #16]
 3594 0028 6561     		str	r5, [r4, #20]
 3595 002a FB60     		str	r3, [r7, #12]
 3596 002c 6661     		str	r6, [r4, #20]
 3597 002e 2661     		str	r6, [r4, #16]
 3598 0030 2561     		str	r5, [r4, #16]
 494:HARDWARE/LCD/ILI93xx.c **** 	LCD_WR_DATA(pwm*2.55);//2设置PWM占空比
 3599              		.loc 1 494 0
 3600 0032 C4F81080 		str	r8, [r4, #16]
 3601 0036 6561     		str	r5, [r4, #20]
 3602 0038 FFF7FEFF 		bl	__aeabi_i2d
 3603              	.LVL183:
 3604 003c 16A3     		adr	r3, .L182
 3605 003e D3E90023 		ldrd	r2, [r3]
 3606 0042 FFF7FEFF 		bl	__aeabi_dmul
 3607              	.LVL184:
 3608 0046 FFF7FEFF 		bl	__aeabi_d2uiz
 3609              	.LVL185:
 495:HARDWARE/LCD/ILI93xx.c **** 	LCD_WR_DATA(0x01);	//3设置C
 496:HARDWARE/LCD/ILI93xx.c **** 	LCD_WR_DATA(0xFF);	//4设置D
 497:HARDWARE/LCD/ILI93xx.c **** 	LCD_WR_DATA(0x00);	//5设置E
 3610              		.loc 1 497 0
 3611 004a 0023     		movs	r3, #0
 495:HARDWARE/LCD/ILI93xx.c **** 	LCD_WR_DATA(0x01);	//3设置C
 3612              		.loc 1 495 0
 3613 004c 0121     		movs	r1, #1
 496:HARDWARE/LCD/ILI93xx.c **** 	LCD_WR_DATA(0x00);	//5设置E
 3614              		.loc 1 496 0
 3615 004e FF22     		movs	r2, #255
 494:HARDWARE/LCD/ILI93xx.c **** 	LCD_WR_DATA(pwm*2.55);//2设置PWM占空比
 3616              		.loc 1 494 0
 3617 0050 F860     		str	r0, [r7, #12]
 3618 0052 6661     		str	r6, [r4, #20]
 3619 0054 2661     		str	r6, [r4, #16]
 3620 0056 2561     		str	r5, [r4, #16]
 495:HARDWARE/LCD/ILI93xx.c **** 	LCD_WR_DATA(0x01);	//3设置C
 3621              		.loc 1 495 0
 3622 0058 C4F81080 		str	r8, [r4, #16]
 3623 005c 6561     		str	r5, [r4, #20]
 3624 005e F960     		str	r1, [r7, #12]
 3625 0060 6661     		str	r6, [r4, #20]
 3626 0062 2661     		str	r6, [r4, #16]
 3627 0064 2561     		str	r5, [r4, #16]
 496:HARDWARE/LCD/ILI93xx.c **** 	LCD_WR_DATA(0x00);	//5设置E
 3628              		.loc 1 496 0
ARM GAS  C:\Users\czsta\AppData\Local\Temp\ccqYu3W2.s 			page 85


 3629 0066 C4F81080 		str	r8, [r4, #16]
 3630 006a 6561     		str	r5, [r4, #20]
 3631 006c FA60     		str	r2, [r7, #12]
 3632 006e 6661     		str	r6, [r4, #20]
 3633 0070 2661     		str	r6, [r4, #16]
 3634 0072 2561     		str	r5, [r4, #16]
 3635              		.loc 1 497 0
 3636 0074 C4F81080 		str	r8, [r4, #16]
 3637 0078 6561     		str	r5, [r4, #20]
 3638 007a FB60     		str	r3, [r7, #12]
 3639 007c 6661     		str	r6, [r4, #20]
 3640 007e 2661     		str	r6, [r4, #16]
 3641 0080 2561     		str	r5, [r4, #16]
 498:HARDWARE/LCD/ILI93xx.c **** 	LCD_WR_DATA(0x00);	//6设置F
 3642              		.loc 1 498 0
 3643 0082 C4F81080 		str	r8, [r4, #16]
 3644 0086 6561     		str	r5, [r4, #20]
 3645 0088 FB60     		str	r3, [r7, #12]
 3646 008a 6661     		str	r6, [r4, #20]
 3647 008c 2661     		str	r6, [r4, #16]
 3648 008e 2561     		str	r5, [r4, #16]
 499:HARDWARE/LCD/ILI93xx.c **** }
 3649              		.loc 1 499 0
 3650 0090 BDE8F081 		pop	{r4, r5, r6, r7, r8, pc}
 3651              	.L183:
 3652 0094 AFF30080 		.align	3
 3653              	.L182:
 3654 0098 66666666 		.word	1717986918
 3655 009c 66660440 		.word	1074030182
 3656 00a0 00100140 		.word	1073811456
 3657 00a4 000C0140 		.word	1073810432
 3658              		.cfi_endproc
 3659              	.LFE48:
 3661              		.section	.text.LCD_Display_Dir,"ax",%progbits
 3662              		.align	1
 3663              		.p2align 2,,3
 3664              		.global	LCD_Display_Dir
 3665              		.syntax unified
 3666              		.thumb
 3667              		.thumb_func
 3668              		.fpu softvfp
 3670              	LCD_Display_Dir:
 3671              	.LFB49:
 500:HARDWARE/LCD/ILI93xx.c **** //设置LCD显示方向
 501:HARDWARE/LCD/ILI93xx.c **** //dir:0,竖屏；1,横屏
 502:HARDWARE/LCD/ILI93xx.c **** void LCD_Display_Dir(u8 dir)
 503:HARDWARE/LCD/ILI93xx.c **** {
 3672              		.loc 1 503 0
 3673              		.cfi_startproc
 3674              		@ args = 0, pretend = 0, frame = 0
 3675              		@ frame_needed = 0, uses_anonymous_args = 0
 3676              		@ link register save eliminated.
 3677              	.LVL186:
 3678 0000 3D4B     		ldr	r3, .L208
 3679 0002 10B4     		push	{r4}
 3680              	.LCFI33:
 3681              		.cfi_def_cfa_offset 4
ARM GAS  C:\Users\czsta\AppData\Local\Temp\ccqYu3W2.s 			page 86


 3682              		.cfi_offset 4, -4
 3683 0004 9A88     		ldrh	r2, [r3, #4]
 504:HARDWARE/LCD/ILI93xx.c **** 	if(dir==0)			//竖屏
 3684              		.loc 1 504 0
 3685 0006 D8B9     		cbnz	r0, .L185
 505:HARDWARE/LCD/ILI93xx.c **** 	{
 506:HARDWARE/LCD/ILI93xx.c **** 		lcddev.dir=0;	//竖屏
 507:HARDWARE/LCD/ILI93xx.c **** 		lcddev.width=240;
 508:HARDWARE/LCD/ILI93xx.c **** 		lcddev.height=320;
 509:HARDWARE/LCD/ILI93xx.c **** 		if(lcddev.id==0X9341||lcddev.id==0X6804||lcddev.id==0X5310)
 3686              		.loc 1 509 0
 3687 0008 49F24131 		movw	r1, #37697
 507:HARDWARE/LCD/ILI93xx.c **** 		lcddev.height=320;
 3688              		.loc 1 507 0
 3689 000c 3B4C     		ldr	r4, .L208+4
 3690              		.loc 1 509 0
 3691 000e 8A42     		cmp	r2, r1
 506:HARDWARE/LCD/ILI93xx.c **** 		lcddev.width=240;
 3692              		.loc 1 506 0
 3693 0010 9871     		strb	r0, [r3, #6]
 507:HARDWARE/LCD/ILI93xx.c **** 		lcddev.height=320;
 3694              		.loc 1 507 0
 3695 0012 1C60     		str	r4, [r3]	@ unaligned
 3696              		.loc 1 509 0
 3697 0014 31D0     		beq	.L193
 3698              		.loc 1 509 0 is_stmt 0 discriminator 1
 3699 0016 46F60401 		movw	r1, #26628
 3700 001a 8A42     		cmp	r2, r1
 3701 001c 35D0     		beq	.L187
 3702              		.loc 1 509 0 discriminator 2
 3703 001e 45F21031 		movw	r1, #21264
 3704 0022 8A42     		cmp	r2, r1
 3705 0024 31D0     		beq	.L187
 510:HARDWARE/LCD/ILI93xx.c **** 		{
 511:HARDWARE/LCD/ILI93xx.c **** 			lcddev.wramcmd=0X2C;
 512:HARDWARE/LCD/ILI93xx.c **** 	 		lcddev.setxcmd=0X2A;
 513:HARDWARE/LCD/ILI93xx.c **** 			lcddev.setycmd=0X2B;  	 
 514:HARDWARE/LCD/ILI93xx.c **** 			if(lcddev.id==0X6804||lcddev.id==0X5310)
 515:HARDWARE/LCD/ILI93xx.c **** 			{
 516:HARDWARE/LCD/ILI93xx.c **** 				lcddev.width=320;
 517:HARDWARE/LCD/ILI93xx.c **** 				lcddev.height=480;
 518:HARDWARE/LCD/ILI93xx.c **** 			}
 519:HARDWARE/LCD/ILI93xx.c **** 		}else if(lcddev.id==0x5510)
 3706              		.loc 1 519 0 is_stmt 1
 3707 0026 45F21051 		movw	r1, #21776
 3708 002a 8A42     		cmp	r2, r1
 3709 002c 4ED0     		beq	.L203
 520:HARDWARE/LCD/ILI93xx.c **** 		{
 521:HARDWARE/LCD/ILI93xx.c **** 			lcddev.wramcmd=0X2C00;
 522:HARDWARE/LCD/ILI93xx.c **** 	 		lcddev.setxcmd=0X2A00;
 523:HARDWARE/LCD/ILI93xx.c **** 			lcddev.setycmd=0X2B00; 
 524:HARDWARE/LCD/ILI93xx.c **** 			lcddev.width=480;
 525:HARDWARE/LCD/ILI93xx.c **** 			lcddev.height=800;
 526:HARDWARE/LCD/ILI93xx.c **** 		}else if(lcddev.id==0X1963)
 3710              		.loc 1 526 0
 3711 002e 41F66311 		movw	r1, #6499
 3712 0032 8A42     		cmp	r2, r1
ARM GAS  C:\Users\czsta\AppData\Local\Temp\ccqYu3W2.s 			page 87


 3713 0034 52D0     		beq	.L204
 527:HARDWARE/LCD/ILI93xx.c **** 		{
 528:HARDWARE/LCD/ILI93xx.c **** 			lcddev.wramcmd=0X2C;	//设置写入GRAM的指令 
 529:HARDWARE/LCD/ILI93xx.c **** 			lcddev.setxcmd=0X2B;	//设置写X坐标指令
 530:HARDWARE/LCD/ILI93xx.c **** 			lcddev.setycmd=0X2A;	//设置写Y坐标指令
 531:HARDWARE/LCD/ILI93xx.c **** 			lcddev.width=480;		//设置宽度480
 532:HARDWARE/LCD/ILI93xx.c **** 			lcddev.height=800;		//设置高度800  
 533:HARDWARE/LCD/ILI93xx.c **** 		}else
 534:HARDWARE/LCD/ILI93xx.c **** 		{
 535:HARDWARE/LCD/ILI93xx.c **** 			lcddev.wramcmd=0X22;
 536:HARDWARE/LCD/ILI93xx.c **** 	 		lcddev.setxcmd=0X20;
 537:HARDWARE/LCD/ILI93xx.c **** 			lcddev.setycmd=0X21;  
 3714              		.loc 1 537 0
 3715 0036 2121     		movs	r1, #33
 535:HARDWARE/LCD/ILI93xx.c **** 	 		lcddev.setxcmd=0X20;
 3716              		.loc 1 535 0
 3717 0038 314A     		ldr	r2, .L208+8
 3718              		.loc 1 537 0
 3719 003a 9981     		strh	r1, [r3, #12]	@ movhi
 535:HARDWARE/LCD/ILI93xx.c **** 	 		lcddev.setxcmd=0X20;
 3720              		.loc 1 535 0
 3721 003c 9A60     		str	r2, [r3, #8]	@ unaligned
 3722 003e 20E0     		b	.L190
 3723              	.L185:
 538:HARDWARE/LCD/ILI93xx.c **** 		}
 539:HARDWARE/LCD/ILI93xx.c **** 	}else 				//横屏
 540:HARDWARE/LCD/ILI93xx.c **** 	{	  				
 541:HARDWARE/LCD/ILI93xx.c **** 		lcddev.dir=1;	//横屏
 542:HARDWARE/LCD/ILI93xx.c **** 		lcddev.width=320;
 543:HARDWARE/LCD/ILI93xx.c **** 		lcddev.height=240;
 544:HARDWARE/LCD/ILI93xx.c **** 		if(lcddev.id==0X9341||lcddev.id==0X5310)
 3724              		.loc 1 544 0
 3725 0040 49F24131 		movw	r1, #37697
 541:HARDWARE/LCD/ILI93xx.c **** 		lcddev.width=320;
 3726              		.loc 1 541 0
 3727 0044 0124     		movs	r4, #1
 542:HARDWARE/LCD/ILI93xx.c **** 		lcddev.height=240;
 3728              		.loc 1 542 0
 3729 0046 2F48     		ldr	r0, .L208+12
 3730              	.LVL187:
 3731              		.loc 1 544 0
 3732 0048 8A42     		cmp	r2, r1
 541:HARDWARE/LCD/ILI93xx.c **** 		lcddev.width=320;
 3733              		.loc 1 541 0
 3734 004a 9C71     		strb	r4, [r3, #6]
 542:HARDWARE/LCD/ILI93xx.c **** 		lcddev.height=240;
 3735              		.loc 1 542 0
 3736 004c 1860     		str	r0, [r3]	@ unaligned
 3737              		.loc 1 544 0
 3738 004e 14D0     		beq	.L193
 3739              		.loc 1 544 0 is_stmt 0 discriminator 1
 3740 0050 45F21031 		movw	r1, #21264
 3741 0054 8A42     		cmp	r2, r1
 3742 0056 2CD0     		beq	.L194
 545:HARDWARE/LCD/ILI93xx.c **** 		{
 546:HARDWARE/LCD/ILI93xx.c **** 			lcddev.wramcmd=0X2C;
 547:HARDWARE/LCD/ILI93xx.c **** 	 		lcddev.setxcmd=0X2A;
ARM GAS  C:\Users\czsta\AppData\Local\Temp\ccqYu3W2.s 			page 88


 548:HARDWARE/LCD/ILI93xx.c **** 			lcddev.setycmd=0X2B;  	 
 549:HARDWARE/LCD/ILI93xx.c **** 		}else if(lcddev.id==0X6804)	 
 3743              		.loc 1 549 0 is_stmt 1
 3744 0058 46F60401 		movw	r1, #26628
 3745 005c 8A42     		cmp	r2, r1
 3746 005e 1ED0     		beq	.L205
 550:HARDWARE/LCD/ILI93xx.c **** 		{
 551:HARDWARE/LCD/ILI93xx.c ****  			lcddev.wramcmd=0X2C;
 552:HARDWARE/LCD/ILI93xx.c **** 	 		lcddev.setxcmd=0X2B;
 553:HARDWARE/LCD/ILI93xx.c **** 			lcddev.setycmd=0X2A; 
 554:HARDWARE/LCD/ILI93xx.c **** 		}else if(lcddev.id==0x5510)
 3747              		.loc 1 554 0
 3748 0060 45F21051 		movw	r1, #21776
 3749 0064 8A42     		cmp	r2, r1
 3750 0066 29D0     		beq	.L206
 555:HARDWARE/LCD/ILI93xx.c **** 		{
 556:HARDWARE/LCD/ILI93xx.c **** 			lcddev.wramcmd=0X2C00;
 557:HARDWARE/LCD/ILI93xx.c **** 	 		lcddev.setxcmd=0X2A00;
 558:HARDWARE/LCD/ILI93xx.c **** 			lcddev.setycmd=0X2B00; 
 559:HARDWARE/LCD/ILI93xx.c **** 			lcddev.width=800;
 560:HARDWARE/LCD/ILI93xx.c **** 			lcddev.height=480;
 561:HARDWARE/LCD/ILI93xx.c **** 		}else if(lcddev.id==0X1963)
 3751              		.loc 1 561 0
 3752 0068 41F66311 		movw	r1, #6499
 3753 006c 8A42     		cmp	r2, r1
 3754 006e 3CD0     		beq	.L207
 562:HARDWARE/LCD/ILI93xx.c **** 		{
 563:HARDWARE/LCD/ILI93xx.c **** 			lcddev.wramcmd=0X2C;	//设置写入GRAM的指令 
 564:HARDWARE/LCD/ILI93xx.c **** 			lcddev.setxcmd=0X2A;	//设置写X坐标指令
 565:HARDWARE/LCD/ILI93xx.c **** 			lcddev.setycmd=0X2B;	//设置写Y坐标指令
 566:HARDWARE/LCD/ILI93xx.c **** 			lcddev.width=800;		//设置宽度800
 567:HARDWARE/LCD/ILI93xx.c **** 			lcddev.height=480;		//设置高度480  
 568:HARDWARE/LCD/ILI93xx.c **** 		}else
 569:HARDWARE/LCD/ILI93xx.c **** 		{
 570:HARDWARE/LCD/ILI93xx.c **** 			lcddev.wramcmd=0X22;
 571:HARDWARE/LCD/ILI93xx.c **** 	 		lcddev.setxcmd=0X21;
 572:HARDWARE/LCD/ILI93xx.c **** 			lcddev.setycmd=0X20;  
 3755              		.loc 1 572 0
 3756 0070 2021     		movs	r1, #32
 570:HARDWARE/LCD/ILI93xx.c **** 	 		lcddev.setxcmd=0X21;
 3757              		.loc 1 570 0
 3758 0072 254A     		ldr	r2, .L208+16
 3759              		.loc 1 572 0
 3760 0074 9981     		strh	r1, [r3, #12]	@ movhi
 570:HARDWARE/LCD/ILI93xx.c **** 	 		lcddev.setxcmd=0X21;
 3761              		.loc 1 570 0
 3762 0076 9A60     		str	r2, [r3, #8]	@ unaligned
 3763 0078 03E0     		b	.L190
 3764              	.L193:
 548:HARDWARE/LCD/ILI93xx.c **** 		}else if(lcddev.id==0X6804)	 
 3765              		.loc 1 548 0
 3766 007a 2B21     		movs	r1, #43
 546:HARDWARE/LCD/ILI93xx.c **** 	 		lcddev.setxcmd=0X2A;
 3767              		.loc 1 546 0
 3768 007c 234A     		ldr	r2, .L208+20
 548:HARDWARE/LCD/ILI93xx.c **** 		}else if(lcddev.id==0X6804)	 
 3769              		.loc 1 548 0
ARM GAS  C:\Users\czsta\AppData\Local\Temp\ccqYu3W2.s 			page 89


 3770 007e 9981     		strh	r1, [r3, #12]	@ movhi
 546:HARDWARE/LCD/ILI93xx.c **** 	 		lcddev.setxcmd=0X2A;
 3771              		.loc 1 546 0
 3772 0080 9A60     		str	r2, [r3, #8]	@ unaligned
 3773              	.L190:
 573:HARDWARE/LCD/ILI93xx.c **** 		}
 574:HARDWARE/LCD/ILI93xx.c **** 		if(lcddev.id==0X6804||lcddev.id==0X5310)
 575:HARDWARE/LCD/ILI93xx.c **** 		{ 	 
 576:HARDWARE/LCD/ILI93xx.c **** 			lcddev.width=480;
 577:HARDWARE/LCD/ILI93xx.c **** 			lcddev.height=320; 			
 578:HARDWARE/LCD/ILI93xx.c **** 		}
 579:HARDWARE/LCD/ILI93xx.c **** 	} 
 580:HARDWARE/LCD/ILI93xx.c **** 	LCD_Scan_Dir(DFT_SCAN_DIR);	//默认扫描方向
 3774              		.loc 1 580 0
 3775 0082 0020     		movs	r0, #0
 581:HARDWARE/LCD/ILI93xx.c **** }	 
 3776              		.loc 1 581 0
 3777 0084 10BC     		pop	{r4}
 3778              	.LCFI34:
 3779              		.cfi_remember_state
 3780              		.cfi_restore 4
 3781              		.cfi_def_cfa_offset 0
 580:HARDWARE/LCD/ILI93xx.c **** }	 
 3782              		.loc 1 580 0
 3783 0086 FFF7FEBF 		b	LCD_Scan_Dir
 3784              	.LVL188:
 3785              	.L187:
 3786              	.LCFI35:
 3787              		.cfi_restore_state
 513:HARDWARE/LCD/ILI93xx.c **** 			if(lcddev.id==0X6804||lcddev.id==0X5310)
 3788              		.loc 1 513 0
 3789 008a 2B21     		movs	r1, #43
 511:HARDWARE/LCD/ILI93xx.c **** 	 		lcddev.setxcmd=0X2A;
 3790              		.loc 1 511 0
 3791 008c 1F4A     		ldr	r2, .L208+20
 580:HARDWARE/LCD/ILI93xx.c **** }	 
 3792              		.loc 1 580 0
 3793 008e 0020     		movs	r0, #0
 3794              	.LVL189:
 511:HARDWARE/LCD/ILI93xx.c **** 	 		lcddev.setxcmd=0X2A;
 3795              		.loc 1 511 0
 3796 0090 9A60     		str	r2, [r3, #8]	@ unaligned
 516:HARDWARE/LCD/ILI93xx.c **** 				lcddev.height=480;
 3797              		.loc 1 516 0
 3798 0092 1F4A     		ldr	r2, .L208+24
 3799              		.loc 1 581 0
 3800 0094 10BC     		pop	{r4}
 3801              	.LCFI36:
 3802              		.cfi_remember_state
 3803              		.cfi_restore 4
 3804              		.cfi_def_cfa_offset 0
 516:HARDWARE/LCD/ILI93xx.c **** 				lcddev.height=480;
 3805              		.loc 1 516 0
 3806 0096 1A60     		str	r2, [r3]	@ unaligned
 513:HARDWARE/LCD/ILI93xx.c **** 			if(lcddev.id==0X6804||lcddev.id==0X5310)
 3807              		.loc 1 513 0
 3808 0098 9981     		strh	r1, [r3, #12]	@ movhi
ARM GAS  C:\Users\czsta\AppData\Local\Temp\ccqYu3W2.s 			page 90


 580:HARDWARE/LCD/ILI93xx.c **** }	 
 3809              		.loc 1 580 0
 3810 009a FFF7FEBF 		b	LCD_Scan_Dir
 3811              	.LVL190:
 3812              	.L205:
 3813              	.LCFI37:
 3814              		.cfi_restore_state
 553:HARDWARE/LCD/ILI93xx.c **** 		}else if(lcddev.id==0x5510)
 3815              		.loc 1 553 0
 3816 009e 2A21     		movs	r1, #42
 551:HARDWARE/LCD/ILI93xx.c **** 	 		lcddev.setxcmd=0X2B;
 3817              		.loc 1 551 0
 3818 00a0 1C4A     		ldr	r2, .L208+28
 553:HARDWARE/LCD/ILI93xx.c **** 		}else if(lcddev.id==0x5510)
 3819              		.loc 1 553 0
 3820 00a2 9981     		strh	r1, [r3, #12]	@ movhi
 551:HARDWARE/LCD/ILI93xx.c **** 	 		lcddev.setxcmd=0X2B;
 3821              		.loc 1 551 0
 3822 00a4 9A60     		str	r2, [r3, #8]	@ unaligned
 3823              	.L196:
 576:HARDWARE/LCD/ILI93xx.c **** 			lcddev.height=320; 			
 3824              		.loc 1 576 0
 3825 00a6 1C4A     		ldr	r2, .L208+32
 580:HARDWARE/LCD/ILI93xx.c **** }	 
 3826              		.loc 1 580 0
 3827 00a8 0020     		movs	r0, #0
 576:HARDWARE/LCD/ILI93xx.c **** 			lcddev.height=320; 			
 3828              		.loc 1 576 0
 3829 00aa 1A60     		str	r2, [r3]	@ unaligned
 3830              		.loc 1 581 0
 3831 00ac 10BC     		pop	{r4}
 3832              	.LCFI38:
 3833              		.cfi_remember_state
 3834              		.cfi_restore 4
 3835              		.cfi_def_cfa_offset 0
 580:HARDWARE/LCD/ILI93xx.c **** }	 
 3836              		.loc 1 580 0
 3837 00ae FFF7FEBF 		b	LCD_Scan_Dir
 3838              	.LVL191:
 3839              	.L194:
 3840              	.LCFI39:
 3841              		.cfi_restore_state
 548:HARDWARE/LCD/ILI93xx.c **** 		}else if(lcddev.id==0X6804)	 
 3842              		.loc 1 548 0
 3843 00b2 2B21     		movs	r1, #43
 546:HARDWARE/LCD/ILI93xx.c **** 	 		lcddev.setxcmd=0X2A;
 3844              		.loc 1 546 0
 3845 00b4 154A     		ldr	r2, .L208+20
 548:HARDWARE/LCD/ILI93xx.c **** 		}else if(lcddev.id==0X6804)	 
 3846              		.loc 1 548 0
 3847 00b6 9981     		strh	r1, [r3, #12]	@ movhi
 546:HARDWARE/LCD/ILI93xx.c **** 	 		lcddev.setxcmd=0X2A;
 3848              		.loc 1 546 0
 3849 00b8 9A60     		str	r2, [r3, #8]	@ unaligned
 3850 00ba F4E7     		b	.L196
 3851              	.L206:
 558:HARDWARE/LCD/ILI93xx.c **** 			lcddev.width=800;
ARM GAS  C:\Users\czsta\AppData\Local\Temp\ccqYu3W2.s 			page 91


 3852              		.loc 1 558 0
 3853 00bc 4FF42C50 		mov	r0, #11008
 556:HARDWARE/LCD/ILI93xx.c **** 	 		lcddev.setxcmd=0X2A00;
 3854              		.loc 1 556 0
 3855 00c0 1649     		ldr	r1, .L208+36
 559:HARDWARE/LCD/ILI93xx.c **** 			lcddev.height=480;
 3856              		.loc 1 559 0
 3857 00c2 174A     		ldr	r2, .L208+40
 558:HARDWARE/LCD/ILI93xx.c **** 			lcddev.width=800;
 3858              		.loc 1 558 0
 3859 00c4 9881     		strh	r0, [r3, #12]	@ movhi
 556:HARDWARE/LCD/ILI93xx.c **** 	 		lcddev.setxcmd=0X2A00;
 3860              		.loc 1 556 0
 3861 00c6 9960     		str	r1, [r3, #8]	@ unaligned
 559:HARDWARE/LCD/ILI93xx.c **** 			lcddev.height=480;
 3862              		.loc 1 559 0
 3863 00c8 1A60     		str	r2, [r3]	@ unaligned
 3864 00ca DAE7     		b	.L190
 3865              	.LVL192:
 3866              	.L203:
 523:HARDWARE/LCD/ILI93xx.c **** 			lcddev.width=480;
 3867              		.loc 1 523 0
 3868 00cc 4FF42C50 		mov	r0, #11008
 3869              	.LVL193:
 521:HARDWARE/LCD/ILI93xx.c **** 	 		lcddev.setxcmd=0X2A00;
 3870              		.loc 1 521 0
 3871 00d0 1249     		ldr	r1, .L208+36
 524:HARDWARE/LCD/ILI93xx.c **** 			lcddev.height=800;
 3872              		.loc 1 524 0
 3873 00d2 144A     		ldr	r2, .L208+44
 523:HARDWARE/LCD/ILI93xx.c **** 			lcddev.width=480;
 3874              		.loc 1 523 0
 3875 00d4 9881     		strh	r0, [r3, #12]	@ movhi
 521:HARDWARE/LCD/ILI93xx.c **** 	 		lcddev.setxcmd=0X2A00;
 3876              		.loc 1 521 0
 3877 00d6 9960     		str	r1, [r3, #8]	@ unaligned
 524:HARDWARE/LCD/ILI93xx.c **** 			lcddev.height=800;
 3878              		.loc 1 524 0
 3879 00d8 1A60     		str	r2, [r3]	@ unaligned
 3880 00da D2E7     		b	.L190
 3881              	.LVL194:
 3882              	.L204:
 530:HARDWARE/LCD/ILI93xx.c **** 			lcddev.width=480;		//设置宽度480
 3883              		.loc 1 530 0
 3884 00dc 2A20     		movs	r0, #42
 3885              	.LVL195:
 528:HARDWARE/LCD/ILI93xx.c **** 			lcddev.setxcmd=0X2B;	//设置写X坐标指令
 3886              		.loc 1 528 0
 3887 00de 0D49     		ldr	r1, .L208+28
 531:HARDWARE/LCD/ILI93xx.c **** 			lcddev.height=800;		//设置高度800  
 3888              		.loc 1 531 0
 3889 00e0 104A     		ldr	r2, .L208+44
 530:HARDWARE/LCD/ILI93xx.c **** 			lcddev.width=480;		//设置宽度480
 3890              		.loc 1 530 0
 3891 00e2 9881     		strh	r0, [r3, #12]	@ movhi
 528:HARDWARE/LCD/ILI93xx.c **** 			lcddev.setxcmd=0X2B;	//设置写X坐标指令
 3892              		.loc 1 528 0
ARM GAS  C:\Users\czsta\AppData\Local\Temp\ccqYu3W2.s 			page 92


 3893 00e4 9960     		str	r1, [r3, #8]	@ unaligned
 531:HARDWARE/LCD/ILI93xx.c **** 			lcddev.height=800;		//设置高度800  
 3894              		.loc 1 531 0
 3895 00e6 1A60     		str	r2, [r3]	@ unaligned
 3896 00e8 CBE7     		b	.L190
 3897              	.LVL196:
 3898              	.L207:
 565:HARDWARE/LCD/ILI93xx.c **** 			lcddev.width=800;		//设置宽度800
 3899              		.loc 1 565 0
 3900 00ea 2B20     		movs	r0, #43
 563:HARDWARE/LCD/ILI93xx.c **** 			lcddev.setxcmd=0X2A;	//设置写X坐标指令
 3901              		.loc 1 563 0
 3902 00ec 0749     		ldr	r1, .L208+20
 566:HARDWARE/LCD/ILI93xx.c **** 			lcddev.height=480;		//设置高度480  
 3903              		.loc 1 566 0
 3904 00ee 0C4A     		ldr	r2, .L208+40
 565:HARDWARE/LCD/ILI93xx.c **** 			lcddev.width=800;		//设置宽度800
 3905              		.loc 1 565 0
 3906 00f0 9881     		strh	r0, [r3, #12]	@ movhi
 563:HARDWARE/LCD/ILI93xx.c **** 			lcddev.setxcmd=0X2A;	//设置写X坐标指令
 3907              		.loc 1 563 0
 3908 00f2 9960     		str	r1, [r3, #8]	@ unaligned
 566:HARDWARE/LCD/ILI93xx.c **** 			lcddev.height=480;		//设置高度480  
 3909              		.loc 1 566 0
 3910 00f4 1A60     		str	r2, [r3]	@ unaligned
 3911 00f6 C4E7     		b	.L190
 3912              	.L209:
 3913              		.align	2
 3914              	.L208:
 3915 00f8 00000000 		.word	lcddev
 3916 00fc F0004001 		.word	20971760
 3917 0100 22002000 		.word	2097186
 3918 0104 4001F000 		.word	15728960
 3919 0108 22002100 		.word	2162722
 3920 010c 2C002A00 		.word	2752556
 3921 0110 4001E001 		.word	31457600
 3922 0114 2C002B00 		.word	2818092
 3923 0118 E0014001 		.word	20972000
 3924 011c 002C002A 		.word	704654336
 3925 0120 2003E001 		.word	31458080
 3926 0124 E0012003 		.word	52429280
 3927              		.cfi_endproc
 3928              	.LFE49:
 3930              		.section	.text.LCD_Set_Window,"ax",%progbits
 3931              		.align	1
 3932              		.p2align 2,,3
 3933              		.global	LCD_Set_Window
 3934              		.syntax unified
 3935              		.thumb
 3936              		.thumb_func
 3937              		.fpu softvfp
 3939              	LCD_Set_Window:
 3940              	.LFB50:
 582:HARDWARE/LCD/ILI93xx.c **** //设置窗口,并自动设置画点坐标到窗口左上角(sx,sy).
 583:HARDWARE/LCD/ILI93xx.c **** //sx,sy:窗口起始坐标(左上角)
 584:HARDWARE/LCD/ILI93xx.c **** //width,height:窗口宽度和高度,必须大于0!!
 585:HARDWARE/LCD/ILI93xx.c **** //窗体大小:width*height. 
ARM GAS  C:\Users\czsta\AppData\Local\Temp\ccqYu3W2.s 			page 93


 586:HARDWARE/LCD/ILI93xx.c **** void LCD_Set_Window(u16 sx,u16 sy,u16 width,u16 height)
 587:HARDWARE/LCD/ILI93xx.c **** {    
 3941              		.loc 1 587 0
 3942              		.cfi_startproc
 3943              		@ args = 0, pretend = 0, frame = 8
 3944              		@ frame_needed = 0, uses_anonymous_args = 0
 3945              	.LVL197:
 3946 0000 2DE9F04F 		push	{r4, r5, r6, r7, r8, r9, r10, fp, lr}
 3947              	.LCFI40:
 3948              		.cfi_def_cfa_offset 36
 3949              		.cfi_offset 4, -36
 3950              		.cfi_offset 5, -32
 3951              		.cfi_offset 6, -28
 3952              		.cfi_offset 7, -24
 3953              		.cfi_offset 8, -20
 3954              		.cfi_offset 9, -16
 3955              		.cfi_offset 10, -12
 3956              		.cfi_offset 11, -8
 3957              		.cfi_offset 14, -4
 588:HARDWARE/LCD/ILI93xx.c **** 	u8 hsareg,heareg,vsareg,veareg;
 589:HARDWARE/LCD/ILI93xx.c **** 	u16 hsaval,heaval,vsaval,veaval; 
 590:HARDWARE/LCD/ILI93xx.c **** 	u16 twidth,theight;
 591:HARDWARE/LCD/ILI93xx.c **** 	twidth=sx+width-1;
 592:HARDWARE/LCD/ILI93xx.c **** 	theight=sy+height-1;
 593:HARDWARE/LCD/ILI93xx.c **** 	if(lcddev.id==0X9341||lcddev.id==0X5310||lcddev.id==0X6804||(lcddev.dir==1&&lcddev.id==0X1963))
 3958              		.loc 1 593 0
 3959 0004 49F24136 		movw	r6, #37697
 3960 0008 AE4F     		ldr	r7, .L223
 592:HARDWARE/LCD/ILI93xx.c **** 	if(lcddev.id==0X9341||lcddev.id==0X5310||lcddev.id==0X6804||(lcddev.dir==1&&lcddev.id==0X1963))
 3961              		.loc 1 592 0
 3962 000a 013B     		subs	r3, r3, #1
 3963              	.LVL198:
 3964              		.loc 1 593 0
 3965 000c BD88     		ldrh	r5, [r7, #4]
 591:HARDWARE/LCD/ILI93xx.c **** 	theight=sy+height-1;
 3966              		.loc 1 591 0
 3967 000e 541E     		subs	r4, r2, #1
 592:HARDWARE/LCD/ILI93xx.c **** 	if(lcddev.id==0X9341||lcddev.id==0X5310||lcddev.id==0X6804||(lcddev.dir==1&&lcddev.id==0X1963))
 3968              		.loc 1 592 0
 3969 0010 0B44     		add	r3, r3, r1
 591:HARDWARE/LCD/ILI93xx.c **** 	theight=sy+height-1;
 3970              		.loc 1 591 0
 3971 0012 0444     		add	r4, r4, r0
 3972              		.loc 1 593 0
 3973 0014 B542     		cmp	r5, r6
 587:HARDWARE/LCD/ILI93xx.c **** 	u8 hsareg,heareg,vsareg,veareg;
 3974              		.loc 1 587 0
 3975 0016 83B0     		sub	sp, sp, #12
 3976              	.LCFI41:
 3977              		.cfi_def_cfa_offset 48
 592:HARDWARE/LCD/ILI93xx.c **** 	if(lcddev.id==0X9341||lcddev.id==0X5310||lcddev.id==0X6804||(lcddev.dir==1&&lcddev.id==0X1963))
 3978              		.loc 1 592 0
 3979 0018 9BB2     		uxth	r3, r3
 591:HARDWARE/LCD/ILI93xx.c **** 	theight=sy+height-1;
 3980              		.loc 1 591 0
 3981 001a A4B2     		uxth	r4, r4
 3982              	.LVL199:
ARM GAS  C:\Users\czsta\AppData\Local\Temp\ccqYu3W2.s 			page 94


 3983              		.loc 1 593 0
 3984 001c 6BD0     		beq	.L211
 3985              		.loc 1 593 0 is_stmt 0 discriminator 1
 3986 001e 45F21036 		movw	r6, #21264
 3987 0022 B542     		cmp	r5, r6
 3988 0024 67D0     		beq	.L211
 3989              		.loc 1 593 0 discriminator 2
 3990 0026 46F60406 		movw	r6, #26628
 3991 002a B542     		cmp	r5, r6
 3992 002c 63D0     		beq	.L211
 3993              		.loc 1 593 0 discriminator 3
 3994 002e BE79     		ldrb	r6, [r7, #6]	@ zero_extendqisi2
 3995 0030 012E     		cmp	r6, #1
 3996 0032 00F03381 		beq	.L221
 594:HARDWARE/LCD/ILI93xx.c **** 	{
 595:HARDWARE/LCD/ILI93xx.c **** 		LCD_WR_REG(lcddev.setxcmd); 
 596:HARDWARE/LCD/ILI93xx.c **** 		LCD_WR_DATA(sx>>8); 
 597:HARDWARE/LCD/ILI93xx.c **** 		LCD_WR_DATA(sx&0XFF);	 
 598:HARDWARE/LCD/ILI93xx.c **** 		LCD_WR_DATA(twidth>>8); 
 599:HARDWARE/LCD/ILI93xx.c **** 		LCD_WR_DATA(twidth&0XFF);  
 600:HARDWARE/LCD/ILI93xx.c **** 		LCD_WR_REG(lcddev.setycmd); 
 601:HARDWARE/LCD/ILI93xx.c **** 		LCD_WR_DATA(sy>>8); 
 602:HARDWARE/LCD/ILI93xx.c **** 		LCD_WR_DATA(sy&0XFF); 
 603:HARDWARE/LCD/ILI93xx.c **** 		LCD_WR_DATA(theight>>8); 
 604:HARDWARE/LCD/ILI93xx.c **** 		LCD_WR_DATA(theight&0XFF); 
 605:HARDWARE/LCD/ILI93xx.c **** 	}else if(lcddev.id==0X1963)//1963竖屏特殊处理
 3997              		.loc 1 605 0 is_stmt 1
 3998 0036 41F66316 		movw	r6, #6499
 3999 003a B542     		cmp	r5, r6
 4000 003c 00F0BF80 		beq	.L222
 606:HARDWARE/LCD/ILI93xx.c **** 	{
 607:HARDWARE/LCD/ILI93xx.c **** 		sx=lcddev.width-width-sx; 
 608:HARDWARE/LCD/ILI93xx.c **** 		height=sy+height-1; 
 609:HARDWARE/LCD/ILI93xx.c **** 		LCD_WR_REG(lcddev.setxcmd); 
 610:HARDWARE/LCD/ILI93xx.c **** 		LCD_WR_DATA(sx>>8); 
 611:HARDWARE/LCD/ILI93xx.c **** 		LCD_WR_DATA(sx&0XFF);	 
 612:HARDWARE/LCD/ILI93xx.c **** 		LCD_WR_DATA((sx+width-1)>>8); 
 613:HARDWARE/LCD/ILI93xx.c **** 		LCD_WR_DATA((sx+width-1)&0XFF);  
 614:HARDWARE/LCD/ILI93xx.c **** 		LCD_WR_REG(lcddev.setycmd); 
 615:HARDWARE/LCD/ILI93xx.c **** 		LCD_WR_DATA(sy>>8); 
 616:HARDWARE/LCD/ILI93xx.c **** 		LCD_WR_DATA(sy&0XFF); 
 617:HARDWARE/LCD/ILI93xx.c **** 		LCD_WR_DATA(height>>8); 
 618:HARDWARE/LCD/ILI93xx.c **** 		LCD_WR_DATA(height&0XFF); 		
 619:HARDWARE/LCD/ILI93xx.c **** 	}else if(lcddev.id==0X5510)
 4001              		.loc 1 619 0
 4002 0040 45F21052 		movw	r2, #21776
 4003              	.LVL200:
 4004 0044 9542     		cmp	r5, r2
 4005 0046 00F04381 		beq	.L216
 620:HARDWARE/LCD/ILI93xx.c **** 	{
 621:HARDWARE/LCD/ILI93xx.c **** 		LCD_WR_REG(lcddev.setxcmd);LCD_WR_DATA(sx>>8);  
 622:HARDWARE/LCD/ILI93xx.c **** 		LCD_WR_REG(lcddev.setxcmd+1);LCD_WR_DATA(sx&0XFF);	  
 623:HARDWARE/LCD/ILI93xx.c **** 		LCD_WR_REG(lcddev.setxcmd+2);LCD_WR_DATA(twidth>>8);   
 624:HARDWARE/LCD/ILI93xx.c **** 		LCD_WR_REG(lcddev.setxcmd+3);LCD_WR_DATA(twidth&0XFF);   
 625:HARDWARE/LCD/ILI93xx.c **** 		LCD_WR_REG(lcddev.setycmd);LCD_WR_DATA(sy>>8);   
 626:HARDWARE/LCD/ILI93xx.c **** 		LCD_WR_REG(lcddev.setycmd+1);LCD_WR_DATA(sy&0XFF);  
 627:HARDWARE/LCD/ILI93xx.c **** 		LCD_WR_REG(lcddev.setycmd+2);LCD_WR_DATA(theight>>8);   
ARM GAS  C:\Users\czsta\AppData\Local\Temp\ccqYu3W2.s 			page 95


 628:HARDWARE/LCD/ILI93xx.c **** 		LCD_WR_REG(lcddev.setycmd+3);LCD_WR_DATA(theight&0XFF);  
 629:HARDWARE/LCD/ILI93xx.c **** 	}else	//其他驱动IC
 630:HARDWARE/LCD/ILI93xx.c **** 	{
 631:HARDWARE/LCD/ILI93xx.c **** 		if(lcddev.dir==1)//横屏
 632:HARDWARE/LCD/ILI93xx.c **** 		{
 633:HARDWARE/LCD/ILI93xx.c **** 			//窗口值
 634:HARDWARE/LCD/ILI93xx.c **** 			hsaval=sy;				
 635:HARDWARE/LCD/ILI93xx.c **** 			heaval=theight;
 636:HARDWARE/LCD/ILI93xx.c **** 			vsaval=lcddev.width-twidth-1;
 637:HARDWARE/LCD/ILI93xx.c **** 			veaval=lcddev.width-sx-1;				
 638:HARDWARE/LCD/ILI93xx.c **** 		}else
 639:HARDWARE/LCD/ILI93xx.c **** 		{ 
 640:HARDWARE/LCD/ILI93xx.c **** 			hsaval=sx;				
 641:HARDWARE/LCD/ILI93xx.c **** 			heaval=twidth;
 642:HARDWARE/LCD/ILI93xx.c **** 			vsaval=sy;
 4006              		.loc 1 642 0
 4007 004a 8E46     		mov	lr, r1
 640:HARDWARE/LCD/ILI93xx.c **** 			heaval=twidth;
 4008              		.loc 1 640 0
 4009 004c 0190     		str	r0, [sp, #4]
 4010              	.LVL201:
 4011              	.L217:
 4012              	.LBB2674:
 4013              	.LBB2675:
 4014              	.LBB2676:
 4015              	.LBB2677:
  96:HARDWARE/LCD/ILI93xx.c **** 	LCD_WR_SET; 
 4016              		.loc 1 96 0
 4017 004e 8026     		movs	r6, #128
  93:HARDWARE/LCD/ILI93xx.c ****  	LCD_CS_CLR; 
 4018              		.loc 1 93 0
 4019 0050 4FF4807C 		mov	ip, #256
  94:HARDWARE/LCD/ILI93xx.c **** 	DATAOUT(data); 
 4020              		.loc 1 94 0
 4021 0054 4FF40075 		mov	r5, #512
  95:HARDWARE/LCD/ILI93xx.c **** 	LCD_WR_CLR; 
 4022              		.loc 1 95 0
 4023 0058 4FF0500B 		mov	fp, #80
  93:HARDWARE/LCD/ILI93xx.c ****  	LCD_CS_CLR; 
 4024              		.loc 1 93 0
 4025 005c 9A4A     		ldr	r2, .L223+4
  95:HARDWARE/LCD/ILI93xx.c **** 	LCD_WR_CLR; 
 4026              		.loc 1 95 0
 4027 005e 9B4F     		ldr	r7, .L223+8
  93:HARDWARE/LCD/ILI93xx.c ****  	LCD_CS_CLR; 
 4028              		.loc 1 93 0
 4029 0060 C2F814C0 		str	ip, [r2, #20]
  94:HARDWARE/LCD/ILI93xx.c **** 	DATAOUT(data); 
 4030              		.loc 1 94 0
 4031 0064 5561     		str	r5, [r2, #20]
  95:HARDWARE/LCD/ILI93xx.c **** 	LCD_WR_CLR; 
 4032              		.loc 1 95 0
 4033 0066 C7F80CB0 		str	fp, [r7, #12]
  96:HARDWARE/LCD/ILI93xx.c **** 	LCD_WR_SET; 
 4034              		.loc 1 96 0
 4035 006a 5661     		str	r6, [r2, #20]
  97:HARDWARE/LCD/ILI93xx.c ****  	LCD_CS_SET;   
ARM GAS  C:\Users\czsta\AppData\Local\Temp\ccqYu3W2.s 			page 96


 4036              		.loc 1 97 0
 4037 006c 1661     		str	r6, [r2, #16]
  98:HARDWARE/LCD/ILI93xx.c **** }
 4038              		.loc 1 98 0
 4039 006e 1561     		str	r5, [r2, #16]
 4040              	.LVL202:
 4041              	.LBE2677:
 4042              	.LBE2676:
 141:HARDWARE/LCD/ILI93xx.c **** }   
 4043              		.loc 1 141 0
 4044 0070 C2F810C0 		str	ip, [r2, #16]
 4045 0074 5561     		str	r5, [r2, #20]
 4046 0076 019D     		ldr	r5, [sp, #4]
 4047              	.LBE2675:
 4048              	.LBE2674:
 4049              	.LBB2681:
 4050              	.LBB2682:
 4051              	.LBB2683:
 4052              	.LBB2684:
  95:HARDWARE/LCD/ILI93xx.c **** 	LCD_WR_CLR; 
 4053              		.loc 1 95 0
 4054 0078 4FF0510A 		mov	r10, #81
 4055              	.LBE2684:
 4056              	.LBE2683:
 4057              	.LBE2682:
 4058              	.LBE2681:
 4059              	.LBB2688:
 4060              	.LBB2678:
 141:HARDWARE/LCD/ILI93xx.c **** }   
 4061              		.loc 1 141 0
 4062 007c FD60     		str	r5, [r7, #12]
 4063              	.LBE2678:
 4064              	.LBE2688:
 4065              	.LBB2689:
 4066              	.LBB2690:
 4067              	.LBB2691:
 4068              	.LBB2692:
  95:HARDWARE/LCD/ILI93xx.c **** 	LCD_WR_CLR; 
 4069              		.loc 1 95 0
 4070 007e 4FF05209 		mov	r9, #82
 4071              	.LBE2692:
 4072              	.LBE2691:
 4073              	.LBE2690:
 4074              	.LBE2689:
 4075              	.LBB2696:
 4076              	.LBB2679:
 141:HARDWARE/LCD/ILI93xx.c **** }   
 4077              		.loc 1 141 0
 4078 0082 4FF40075 		mov	r5, #512
 4079              	.LBE2679:
 4080              	.LBE2696:
 4081              	.LBB2697:
 4082              	.LBB2698:
 4083              	.LBB2699:
 4084              	.LBB2700:
  95:HARDWARE/LCD/ILI93xx.c **** 	LCD_WR_CLR; 
 4085              		.loc 1 95 0
ARM GAS  C:\Users\czsta\AppData\Local\Temp\ccqYu3W2.s 			page 97


 4086 0086 4FF05308 		mov	r8, #83
 4087              	.LBE2700:
 4088              	.LBE2699:
 4089              	.LBE2698:
 4090              	.LBE2697:
 4091              	.LBB2704:
 4092              	.LBB2680:
 141:HARDWARE/LCD/ILI93xx.c **** }   
 4093              		.loc 1 141 0
 4094 008a 5661     		str	r6, [r2, #20]
 4095 008c 1661     		str	r6, [r2, #16]
 4096 008e 1561     		str	r5, [r2, #16]
 4097              	.LVL203:
 4098              	.LBE2680:
 4099              	.LBE2704:
 4100              	.LBB2705:
 4101              	.LBB2687:
 4102              	.LBB2686:
 4103              	.LBB2685:
  93:HARDWARE/LCD/ILI93xx.c ****  	LCD_CS_CLR; 
 4104              		.loc 1 93 0
 4105 0090 C2F814C0 		str	ip, [r2, #20]
  94:HARDWARE/LCD/ILI93xx.c **** 	DATAOUT(data); 
 4106              		.loc 1 94 0
 4107 0094 5561     		str	r5, [r2, #20]
  95:HARDWARE/LCD/ILI93xx.c **** 	LCD_WR_CLR; 
 4108              		.loc 1 95 0
 4109 0096 C7F80CA0 		str	r10, [r7, #12]
  96:HARDWARE/LCD/ILI93xx.c **** 	LCD_WR_SET; 
 4110              		.loc 1 96 0
 4111 009a 5661     		str	r6, [r2, #20]
  97:HARDWARE/LCD/ILI93xx.c ****  	LCD_CS_SET;   
 4112              		.loc 1 97 0
 4113 009c 1661     		str	r6, [r2, #16]
  98:HARDWARE/LCD/ILI93xx.c **** }
 4114              		.loc 1 98 0
 4115 009e 1561     		str	r5, [r2, #16]
 4116              	.LVL204:
 4117              	.LBE2685:
 4118              	.LBE2686:
 141:HARDWARE/LCD/ILI93xx.c **** }   
 4119              		.loc 1 141 0
 4120 00a0 C2F810C0 		str	ip, [r2, #16]
 4121 00a4 5561     		str	r5, [r2, #20]
 4122 00a6 FC60     		str	r4, [r7, #12]
 4123 00a8 5661     		str	r6, [r2, #20]
 4124 00aa 1661     		str	r6, [r2, #16]
 4125 00ac 1561     		str	r5, [r2, #16]
 4126              	.LVL205:
 4127              	.LBE2687:
 4128              	.LBE2705:
 4129              	.LBB2706:
 4130              	.LBB2695:
 4131              	.LBB2694:
 4132              	.LBB2693:
  93:HARDWARE/LCD/ILI93xx.c ****  	LCD_CS_CLR; 
 4133              		.loc 1 93 0
ARM GAS  C:\Users\czsta\AppData\Local\Temp\ccqYu3W2.s 			page 98


 4134 00ae C2F814C0 		str	ip, [r2, #20]
  94:HARDWARE/LCD/ILI93xx.c **** 	DATAOUT(data); 
 4135              		.loc 1 94 0
 4136 00b2 5561     		str	r5, [r2, #20]
  95:HARDWARE/LCD/ILI93xx.c **** 	LCD_WR_CLR; 
 4137              		.loc 1 95 0
 4138 00b4 C7F80C90 		str	r9, [r7, #12]
  96:HARDWARE/LCD/ILI93xx.c **** 	LCD_WR_SET; 
 4139              		.loc 1 96 0
 4140 00b8 5661     		str	r6, [r2, #20]
  97:HARDWARE/LCD/ILI93xx.c ****  	LCD_CS_SET;   
 4141              		.loc 1 97 0
 4142 00ba 1661     		str	r6, [r2, #16]
  98:HARDWARE/LCD/ILI93xx.c **** }
 4143              		.loc 1 98 0
 4144 00bc 1561     		str	r5, [r2, #16]
 4145              	.LVL206:
 4146              	.LBE2693:
 4147              	.LBE2694:
 141:HARDWARE/LCD/ILI93xx.c **** }   
 4148              		.loc 1 141 0
 4149 00be C2F810C0 		str	ip, [r2, #16]
 4150 00c2 5561     		str	r5, [r2, #20]
 4151 00c4 C7F80CE0 		str	lr, [r7, #12]
 4152 00c8 5661     		str	r6, [r2, #20]
 4153 00ca 1661     		str	r6, [r2, #16]
 4154 00cc 1561     		str	r5, [r2, #16]
 4155              	.LVL207:
 4156              	.LBE2695:
 4157              	.LBE2706:
 4158              	.LBB2707:
 4159              	.LBB2703:
 4160              	.LBB2702:
 4161              	.LBB2701:
  93:HARDWARE/LCD/ILI93xx.c ****  	LCD_CS_CLR; 
 4162              		.loc 1 93 0
 4163 00ce C2F814C0 		str	ip, [r2, #20]
  94:HARDWARE/LCD/ILI93xx.c **** 	DATAOUT(data); 
 4164              		.loc 1 94 0
 4165 00d2 5561     		str	r5, [r2, #20]
  95:HARDWARE/LCD/ILI93xx.c **** 	LCD_WR_CLR; 
 4166              		.loc 1 95 0
 4167 00d4 C7F80C80 		str	r8, [r7, #12]
  96:HARDWARE/LCD/ILI93xx.c **** 	LCD_WR_SET; 
 4168              		.loc 1 96 0
 4169 00d8 5661     		str	r6, [r2, #20]
  97:HARDWARE/LCD/ILI93xx.c ****  	LCD_CS_SET;   
 4170              		.loc 1 97 0
 4171 00da 1661     		str	r6, [r2, #16]
  98:HARDWARE/LCD/ILI93xx.c **** }
 4172              		.loc 1 98 0
 4173 00dc 1561     		str	r5, [r2, #16]
 4174              	.LVL208:
 4175              	.LBE2701:
 4176              	.LBE2702:
 141:HARDWARE/LCD/ILI93xx.c **** }   
 4177              		.loc 1 141 0
ARM GAS  C:\Users\czsta\AppData\Local\Temp\ccqYu3W2.s 			page 99


 4178 00de C2F810C0 		str	ip, [r2, #16]
 4179 00e2 5561     		str	r5, [r2, #20]
 4180 00e4 FB60     		str	r3, [r7, #12]
 4181 00e6 5661     		str	r6, [r2, #20]
 4182 00e8 1661     		str	r6, [r2, #16]
 4183 00ea 1561     		str	r5, [r2, #16]
 4184              	.LVL209:
 4185              	.LBE2703:
 4186              	.LBE2707:
 643:HARDWARE/LCD/ILI93xx.c **** 			veaval=theight;
 644:HARDWARE/LCD/ILI93xx.c **** 		} 
 645:HARDWARE/LCD/ILI93xx.c **** 		hsareg=0X50;heareg=0X51;//水平方向窗口寄存器
 646:HARDWARE/LCD/ILI93xx.c **** 		vsareg=0X52;veareg=0X53;//垂直方向窗口寄存器	   							  
 647:HARDWARE/LCD/ILI93xx.c **** 		//设置寄存器值
 648:HARDWARE/LCD/ILI93xx.c **** 		LCD_WriteReg(hsareg,hsaval);
 649:HARDWARE/LCD/ILI93xx.c **** 		LCD_WriteReg(heareg,heaval);
 650:HARDWARE/LCD/ILI93xx.c **** 		LCD_WriteReg(vsareg,vsaval);
 651:HARDWARE/LCD/ILI93xx.c **** 		LCD_WriteReg(veareg,veaval);		
 652:HARDWARE/LCD/ILI93xx.c **** 		LCD_SetCursor(sx,sy);	//设置光标位置
 653:HARDWARE/LCD/ILI93xx.c **** 	}
 654:HARDWARE/LCD/ILI93xx.c **** }
 4187              		.loc 1 654 0
 4188 00ec 03B0     		add	sp, sp, #12
 4189              	.LCFI42:
 4190              		.cfi_remember_state
 4191              		.cfi_def_cfa_offset 36
 4192              		@ sp needed
 4193 00ee BDE8F04F 		pop	{r4, r5, r6, r7, r8, r9, r10, fp, lr}
 4194              	.LCFI43:
 4195              		.cfi_restore 14
 4196              		.cfi_restore 11
 4197              		.cfi_restore 10
 4198              		.cfi_restore 9
 4199              		.cfi_restore 8
 4200              		.cfi_restore 7
 4201              		.cfi_restore 6
 4202              		.cfi_restore 5
 4203              		.cfi_restore 4
 4204              		.cfi_def_cfa_offset 0
 4205              	.LVL210:
 652:HARDWARE/LCD/ILI93xx.c **** 	}
 4206              		.loc 1 652 0
 4207 00f2 FFF7FEBF 		b	LCD_SetCursor
 4208              	.LVL211:
 4209              	.L211:
 4210              	.LCFI44:
 4211              		.cfi_restore_state
 4212              	.LBB2708:
 4213              	.LBB2709:
  94:HARDWARE/LCD/ILI93xx.c **** 	DATAOUT(data); 
 4214              		.loc 1 94 0
 4215 00f6 4FF40075 		mov	r5, #512
  96:HARDWARE/LCD/ILI93xx.c **** 	LCD_WR_SET; 
 4216              		.loc 1 96 0
 4217 00fa 8026     		movs	r6, #128
  93:HARDWARE/LCD/ILI93xx.c ****  	LCD_CS_CLR; 
 4218              		.loc 1 93 0
ARM GAS  C:\Users\czsta\AppData\Local\Temp\ccqYu3W2.s 			page 100


 4219 00fc 4FF4807C 		mov	ip, #256
 4220 0100 714A     		ldr	r2, .L223+4
 4221              	.LBE2709:
 4222              	.LBE2708:
 600:HARDWARE/LCD/ILI93xx.c **** 		LCD_WR_DATA(sy>>8); 
 4223              		.loc 1 600 0
 4224 0102 B7F80CE0 		ldrh	lr, [r7, #12]
 595:HARDWARE/LCD/ILI93xx.c **** 		LCD_WR_DATA(sx>>8); 
 4225              		.loc 1 595 0
 4226 0106 B7F80A80 		ldrh	r8, [r7, #10]
 4227              	.LVL212:
 4228              	.LBB2715:
 4229              	.LBB2710:
  95:HARDWARE/LCD/ILI93xx.c **** 	LCD_WR_CLR; 
 4230              		.loc 1 95 0
 4231 010a 704F     		ldr	r7, .L223+8
 4232              	.LBE2710:
 4233              	.LBE2715:
 596:HARDWARE/LCD/ILI93xx.c **** 		LCD_WR_DATA(sx&0XFF);	 
 4234              		.loc 1 596 0
 4235 010c 4FEA102A 		lsr	r10, r0, #8
 597:HARDWARE/LCD/ILI93xx.c **** 		LCD_WR_DATA(twidth>>8); 
 4236              		.loc 1 597 0
 4237 0110 C0B2     		uxtb	r0, r0
 4238              	.LVL213:
 4239              	.LBB2716:
 4240              	.LBB2711:
  93:HARDWARE/LCD/ILI93xx.c ****  	LCD_CS_CLR; 
 4241              		.loc 1 93 0
 4242 0112 C2F814C0 		str	ip, [r2, #20]
 4243              	.LBE2711:
 4244              	.LBE2716:
 599:HARDWARE/LCD/ILI93xx.c **** 		LCD_WR_REG(lcddev.setycmd); 
 4245              		.loc 1 599 0
 4246 0116 5FFA84F9 		uxtb	r9, r4
 4247              	.LBB2717:
 4248              	.LBB2712:
  94:HARDWARE/LCD/ILI93xx.c **** 	DATAOUT(data); 
 4249              		.loc 1 94 0
 4250 011a 5561     		str	r5, [r2, #20]
  95:HARDWARE/LCD/ILI93xx.c **** 	LCD_WR_CLR; 
 4251              		.loc 1 95 0
 4252 011c C7F80C80 		str	r8, [r7, #12]
  96:HARDWARE/LCD/ILI93xx.c **** 	LCD_WR_SET; 
 4253              		.loc 1 96 0
 4254 0120 5661     		str	r6, [r2, #20]
 4255              	.LBE2712:
 4256              	.LBE2717:
 598:HARDWARE/LCD/ILI93xx.c **** 		LCD_WR_DATA(twidth&0XFF);  
 4257              		.loc 1 598 0
 4258 0122 C4F30F28 		ubfx	r8, r4, #8, #16
 4259              	.LVL214:
 4260              	.LBB2718:
 4261              	.LBB2713:
  97:HARDWARE/LCD/ILI93xx.c ****  	LCD_CS_SET;   
 4262              		.loc 1 97 0
 4263 0126 1661     		str	r6, [r2, #16]
ARM GAS  C:\Users\czsta\AppData\Local\Temp\ccqYu3W2.s 			page 101


 4264              	.LBE2713:
 4265              	.LBE2718:
 601:HARDWARE/LCD/ILI93xx.c **** 		LCD_WR_DATA(sy&0XFF); 
 4266              		.loc 1 601 0
 4267 0128 0C0A     		lsrs	r4, r1, #8
 4268              	.LVL215:
 4269              	.LBB2719:
 4270              	.LBB2714:
  98:HARDWARE/LCD/ILI93xx.c **** }
 4271              		.loc 1 98 0
 4272 012a 1561     		str	r5, [r2, #16]
 4273              	.LVL216:
 4274              	.LBE2714:
 4275              	.LBE2719:
 602:HARDWARE/LCD/ILI93xx.c **** 		LCD_WR_DATA(theight>>8); 
 4276              		.loc 1 602 0
 4277 012c C9B2     		uxtb	r1, r1
 4278              	.LVL217:
 596:HARDWARE/LCD/ILI93xx.c **** 		LCD_WR_DATA(sx&0XFF);	 
 4279              		.loc 1 596 0
 4280 012e C2F810C0 		str	ip, [r2, #16]
 4281 0132 5561     		str	r5, [r2, #20]
 4282 0134 C7F80CA0 		str	r10, [r7, #12]
 4283 0138 5661     		str	r6, [r2, #20]
 4284 013a 1661     		str	r6, [r2, #16]
 4285 013c 1561     		str	r5, [r2, #16]
 597:HARDWARE/LCD/ILI93xx.c **** 		LCD_WR_DATA(twidth>>8); 
 4286              		.loc 1 597 0
 4287 013e C2F810C0 		str	ip, [r2, #16]
 4288 0142 5561     		str	r5, [r2, #20]
 4289 0144 F860     		str	r0, [r7, #12]
 603:HARDWARE/LCD/ILI93xx.c **** 		LCD_WR_DATA(theight&0XFF); 
 4290              		.loc 1 603 0
 4291 0146 180A     		lsrs	r0, r3, #8
 604:HARDWARE/LCD/ILI93xx.c **** 	}else if(lcddev.id==0X1963)//1963竖屏特殊处理
 4292              		.loc 1 604 0
 4293 0148 DBB2     		uxtb	r3, r3
 4294              	.LVL218:
 597:HARDWARE/LCD/ILI93xx.c **** 		LCD_WR_DATA(twidth>>8); 
 4295              		.loc 1 597 0
 4296 014a 5661     		str	r6, [r2, #20]
 4297 014c 1661     		str	r6, [r2, #16]
 4298 014e 1561     		str	r5, [r2, #16]
 598:HARDWARE/LCD/ILI93xx.c **** 		LCD_WR_DATA(twidth&0XFF);  
 4299              		.loc 1 598 0
 4300 0150 C2F810C0 		str	ip, [r2, #16]
 4301 0154 5561     		str	r5, [r2, #20]
 4302 0156 C7F80C80 		str	r8, [r7, #12]
 4303 015a 5661     		str	r6, [r2, #20]
 4304 015c 1661     		str	r6, [r2, #16]
 4305 015e 1561     		str	r5, [r2, #16]
 599:HARDWARE/LCD/ILI93xx.c **** 		LCD_WR_REG(lcddev.setycmd); 
 4306              		.loc 1 599 0
 4307 0160 C2F810C0 		str	ip, [r2, #16]
 4308 0164 5561     		str	r5, [r2, #20]
 4309 0166 C7F80C90 		str	r9, [r7, #12]
 4310 016a 5661     		str	r6, [r2, #20]
ARM GAS  C:\Users\czsta\AppData\Local\Temp\ccqYu3W2.s 			page 102


 4311 016c 1661     		str	r6, [r2, #16]
 4312 016e 1561     		str	r5, [r2, #16]
 4313              	.LBB2720:
 4314              	.LBB2721:
  93:HARDWARE/LCD/ILI93xx.c ****  	LCD_CS_CLR; 
 4315              		.loc 1 93 0
 4316 0170 C2F814C0 		str	ip, [r2, #20]
  94:HARDWARE/LCD/ILI93xx.c **** 	DATAOUT(data); 
 4317              		.loc 1 94 0
 4318 0174 5561     		str	r5, [r2, #20]
  95:HARDWARE/LCD/ILI93xx.c **** 	LCD_WR_CLR; 
 4319              		.loc 1 95 0
 4320 0176 C7F80CE0 		str	lr, [r7, #12]
  96:HARDWARE/LCD/ILI93xx.c **** 	LCD_WR_SET; 
 4321              		.loc 1 96 0
 4322 017a 5661     		str	r6, [r2, #20]
  97:HARDWARE/LCD/ILI93xx.c ****  	LCD_CS_SET;   
 4323              		.loc 1 97 0
 4324 017c 1661     		str	r6, [r2, #16]
  98:HARDWARE/LCD/ILI93xx.c **** }
 4325              		.loc 1 98 0
 4326 017e 1561     		str	r5, [r2, #16]
 4327              	.LVL219:
 4328              	.LBE2721:
 4329              	.LBE2720:
 601:HARDWARE/LCD/ILI93xx.c **** 		LCD_WR_DATA(sy&0XFF); 
 4330              		.loc 1 601 0
 4331 0180 C2F810C0 		str	ip, [r2, #16]
 4332 0184 5561     		str	r5, [r2, #20]
 4333 0186 FC60     		str	r4, [r7, #12]
 4334 0188 5661     		str	r6, [r2, #20]
 4335 018a 1661     		str	r6, [r2, #16]
 4336 018c 1561     		str	r5, [r2, #16]
 602:HARDWARE/LCD/ILI93xx.c **** 		LCD_WR_DATA(theight>>8); 
 4337              		.loc 1 602 0
 4338 018e C2F810C0 		str	ip, [r2, #16]
 4339 0192 5561     		str	r5, [r2, #20]
 4340 0194 F960     		str	r1, [r7, #12]
 4341 0196 5661     		str	r6, [r2, #20]
 4342 0198 1661     		str	r6, [r2, #16]
 4343 019a 1561     		str	r5, [r2, #16]
 603:HARDWARE/LCD/ILI93xx.c **** 		LCD_WR_DATA(theight&0XFF); 
 4344              		.loc 1 603 0
 4345 019c C2F810C0 		str	ip, [r2, #16]
 4346 01a0 5561     		str	r5, [r2, #20]
 4347 01a2 F860     		str	r0, [r7, #12]
 4348 01a4 5661     		str	r6, [r2, #20]
 4349 01a6 1661     		str	r6, [r2, #16]
 4350 01a8 1561     		str	r5, [r2, #16]
 604:HARDWARE/LCD/ILI93xx.c **** 	}else if(lcddev.id==0X1963)//1963竖屏特殊处理
 4351              		.loc 1 604 0
 4352 01aa C2F810C0 		str	ip, [r2, #16]
 4353 01ae 5561     		str	r5, [r2, #20]
 4354 01b0 FB60     		str	r3, [r7, #12]
 4355 01b2 5661     		str	r6, [r2, #20]
 4356 01b4 1661     		str	r6, [r2, #16]
 4357 01b6 1561     		str	r5, [r2, #16]
ARM GAS  C:\Users\czsta\AppData\Local\Temp\ccqYu3W2.s 			page 103


 4358              	.LVL220:
 4359              	.L210:
 4360              		.loc 1 654 0
 4361 01b8 03B0     		add	sp, sp, #12
 4362              	.LCFI45:
 4363              		.cfi_remember_state
 4364              		.cfi_def_cfa_offset 36
 4365              		@ sp needed
 4366 01ba BDE8F08F 		pop	{r4, r5, r6, r7, r8, r9, r10, fp, pc}
 4367              	.LVL221:
 4368              	.L222:
 4369              	.LCFI46:
 4370              		.cfi_restore_state
 4371              	.LBB2722:
 4372              	.LBB2723:
  94:HARDWARE/LCD/ILI93xx.c **** 	DATAOUT(data); 
 4373              		.loc 1 94 0
 4374 01be 4FF40075 		mov	r5, #512
  93:HARDWARE/LCD/ILI93xx.c ****  	LCD_CS_CLR; 
 4375              		.loc 1 93 0
 4376 01c2 4FF4807C 		mov	ip, #256
  96:HARDWARE/LCD/ILI93xx.c **** 	LCD_WR_SET; 
 4377              		.loc 1 96 0
 4378 01c6 8026     		movs	r6, #128
 4379              	.LBE2723:
 4380              	.LBE2722:
 607:HARDWARE/LCD/ILI93xx.c **** 		height=sy+height-1; 
 4381              		.loc 1 607 0
 4382 01c8 B7F800E0 		ldrh	lr, [r7]
 4383              	.LBB2730:
 4384              	.LBB2724:
  93:HARDWARE/LCD/ILI93xx.c ****  	LCD_CS_CLR; 
 4385              		.loc 1 93 0
 4386 01cc 3E4C     		ldr	r4, .L223+4
 4387              	.LVL222:
 4388              	.LBE2724:
 4389              	.LBE2730:
 607:HARDWARE/LCD/ILI93xx.c **** 		height=sy+height-1; 
 4390              		.loc 1 607 0
 4391 01ce AEEB020E 		sub	lr, lr, r2
 4392 01d2 AEEB0000 		sub	r0, lr, r0
 4393              	.LVL223:
 4394 01d6 80B2     		uxth	r0, r0
 4395              	.LVL224:
 609:HARDWARE/LCD/ILI93xx.c **** 		LCD_WR_DATA(sx>>8); 
 4396              		.loc 1 609 0
 4397 01d8 B7F80A80 		ldrh	r8, [r7, #10]
 4398              	.LVL225:
 4399              	.LBB2731:
 4400              	.LBB2725:
  95:HARDWARE/LCD/ILI93xx.c **** 	LCD_WR_CLR; 
 4401              		.loc 1 95 0
 4402 01dc DFF8ECE0 		ldr	lr, .L223+8
 4403              	.LBE2725:
 4404              	.LBE2731:
 612:HARDWARE/LCD/ILI93xx.c **** 		LCD_WR_DATA((sx+width-1)&0XFF);  
 4405              		.loc 1 612 0
ARM GAS  C:\Users\czsta\AppData\Local\Temp\ccqYu3W2.s 			page 104


 4406 01e0 0244     		add	r2, r2, r0
 4407              	.LVL226:
 4408 01e2 013A     		subs	r2, r2, #1
 4409              	.LBB2732:
 4410              	.LBB2726:
  93:HARDWARE/LCD/ILI93xx.c ****  	LCD_CS_CLR; 
 4411              		.loc 1 93 0
 4412 01e4 C4F814C0 		str	ip, [r4, #20]
 4413              	.LBE2726:
 4414              	.LBE2732:
 610:HARDWARE/LCD/ILI93xx.c **** 		LCD_WR_DATA(sx&0XFF);	 
 4415              		.loc 1 610 0
 4416 01e8 4FEA1029 		lsr	r9, r0, #8
 4417              	.LBB2733:
 4418              	.LBB2727:
  94:HARDWARE/LCD/ILI93xx.c **** 	DATAOUT(data); 
 4419              		.loc 1 94 0
 4420 01ec 6561     		str	r5, [r4, #20]
 4421              	.LBE2727:
 4422              	.LBE2733:
 611:HARDWARE/LCD/ILI93xx.c **** 		LCD_WR_DATA((sx+width-1)>>8); 
 4423              		.loc 1 611 0
 4424 01ee C0B2     		uxtb	r0, r0
 4425              	.LVL227:
 4426              	.LBB2734:
 4427              	.LBB2728:
  95:HARDWARE/LCD/ILI93xx.c **** 	LCD_WR_CLR; 
 4428              		.loc 1 95 0
 4429 01f0 CEF80C80 		str	r8, [lr, #12]
 4430              	.LBE2728:
 4431              	.LBE2734:
 612:HARDWARE/LCD/ILI93xx.c **** 		LCD_WR_DATA((sx+width-1)&0XFF);  
 4432              		.loc 1 612 0
 4433 01f4 4FEA2228 		asr	r8, r2, #8
 4434              	.LVL228:
 613:HARDWARE/LCD/ILI93xx.c **** 		LCD_WR_REG(lcddev.setycmd); 
 4435              		.loc 1 613 0
 4436 01f8 D2B2     		uxtb	r2, r2
 4437              	.LBB2735:
 4438              	.LBB2729:
  96:HARDWARE/LCD/ILI93xx.c **** 	LCD_WR_SET; 
 4439              		.loc 1 96 0
 4440 01fa 6661     		str	r6, [r4, #20]
 4441              	.LVL229:
  97:HARDWARE/LCD/ILI93xx.c ****  	LCD_CS_SET;   
 4442              		.loc 1 97 0
 4443 01fc 2661     		str	r6, [r4, #16]
  98:HARDWARE/LCD/ILI93xx.c **** }
 4444              		.loc 1 98 0
 4445 01fe 2561     		str	r5, [r4, #16]
 4446              	.LVL230:
 4447              	.LBE2729:
 4448              	.LBE2735:
 610:HARDWARE/LCD/ILI93xx.c **** 		LCD_WR_DATA(sx&0XFF);	 
 4449              		.loc 1 610 0
 4450 0200 C4F810C0 		str	ip, [r4, #16]
 4451 0204 6561     		str	r5, [r4, #20]
ARM GAS  C:\Users\czsta\AppData\Local\Temp\ccqYu3W2.s 			page 105


 4452 0206 CEF80C90 		str	r9, [lr, #12]
 4453 020a 6661     		str	r6, [r4, #20]
 4454 020c 2661     		str	r6, [r4, #16]
 4455 020e 2561     		str	r5, [r4, #16]
 611:HARDWARE/LCD/ILI93xx.c **** 		LCD_WR_DATA((sx+width-1)>>8); 
 4456              		.loc 1 611 0
 4457 0210 C4F810C0 		str	ip, [r4, #16]
 4458 0214 6561     		str	r5, [r4, #20]
 4459 0216 CEF80C00 		str	r0, [lr, #12]
 4460 021a 6661     		str	r6, [r4, #20]
 4461 021c 2661     		str	r6, [r4, #16]
 4462 021e 2561     		str	r5, [r4, #16]
 612:HARDWARE/LCD/ILI93xx.c **** 		LCD_WR_DATA((sx+width-1)&0XFF);  
 4463              		.loc 1 612 0
 4464 0220 C4F810C0 		str	ip, [r4, #16]
 4465 0224 6561     		str	r5, [r4, #20]
 4466 0226 CEF80C80 		str	r8, [lr, #12]
 4467 022a 6661     		str	r6, [r4, #20]
 4468 022c 2661     		str	r6, [r4, #16]
 4469 022e 2561     		str	r5, [r4, #16]
 613:HARDWARE/LCD/ILI93xx.c **** 		LCD_WR_REG(lcddev.setycmd); 
 4470              		.loc 1 613 0
 4471 0230 C4F810C0 		str	ip, [r4, #16]
 4472 0234 6561     		str	r5, [r4, #20]
 4473 0236 CEF80C20 		str	r2, [lr, #12]
 4474 023a 6661     		str	r6, [r4, #20]
 4475 023c 2661     		str	r6, [r4, #16]
 4476 023e 2561     		str	r5, [r4, #16]
 614:HARDWARE/LCD/ILI93xx.c **** 		LCD_WR_DATA(sy>>8); 
 4477              		.loc 1 614 0
 4478 0240 BF89     		ldrh	r7, [r7, #12]
 4479              	.LVL231:
 615:HARDWARE/LCD/ILI93xx.c **** 		LCD_WR_DATA(sy&0XFF); 
 4480              		.loc 1 615 0
 4481 0242 080A     		lsrs	r0, r1, #8
 617:HARDWARE/LCD/ILI93xx.c **** 		LCD_WR_DATA(height&0XFF); 		
 4482              		.loc 1 617 0
 4483 0244 1A0A     		lsrs	r2, r3, #8
 616:HARDWARE/LCD/ILI93xx.c **** 		LCD_WR_DATA(height>>8); 
 4484              		.loc 1 616 0
 4485 0246 C9B2     		uxtb	r1, r1
 4486              	.LVL232:
 618:HARDWARE/LCD/ILI93xx.c **** 	}else if(lcddev.id==0X5510)
 4487              		.loc 1 618 0
 4488 0248 DBB2     		uxtb	r3, r3
 4489              	.LVL233:
 4490              	.LBB2736:
 4491              	.LBB2737:
  93:HARDWARE/LCD/ILI93xx.c ****  	LCD_CS_CLR; 
 4492              		.loc 1 93 0
 4493 024a C4F814C0 		str	ip, [r4, #20]
  94:HARDWARE/LCD/ILI93xx.c **** 	DATAOUT(data); 
 4494              		.loc 1 94 0
 4495 024e 6561     		str	r5, [r4, #20]
  95:HARDWARE/LCD/ILI93xx.c **** 	LCD_WR_CLR; 
 4496              		.loc 1 95 0
 4497 0250 CEF80C70 		str	r7, [lr, #12]
ARM GAS  C:\Users\czsta\AppData\Local\Temp\ccqYu3W2.s 			page 106


  96:HARDWARE/LCD/ILI93xx.c **** 	LCD_WR_SET; 
 4498              		.loc 1 96 0
 4499 0254 6661     		str	r6, [r4, #20]
  97:HARDWARE/LCD/ILI93xx.c ****  	LCD_CS_SET;   
 4500              		.loc 1 97 0
 4501 0256 2661     		str	r6, [r4, #16]
  98:HARDWARE/LCD/ILI93xx.c **** }
 4502              		.loc 1 98 0
 4503 0258 2561     		str	r5, [r4, #16]
 4504              	.LVL234:
 4505              	.LBE2737:
 4506              	.LBE2736:
 615:HARDWARE/LCD/ILI93xx.c **** 		LCD_WR_DATA(sy&0XFF); 
 4507              		.loc 1 615 0
 4508 025a C4F810C0 		str	ip, [r4, #16]
 4509 025e 6561     		str	r5, [r4, #20]
 4510 0260 CEF80C00 		str	r0, [lr, #12]
 4511 0264 6661     		str	r6, [r4, #20]
 4512 0266 2661     		str	r6, [r4, #16]
 4513 0268 2561     		str	r5, [r4, #16]
 616:HARDWARE/LCD/ILI93xx.c **** 		LCD_WR_DATA(height>>8); 
 4514              		.loc 1 616 0
 4515 026a C4F810C0 		str	ip, [r4, #16]
 4516 026e 6561     		str	r5, [r4, #20]
 4517 0270 CEF80C10 		str	r1, [lr, #12]
 4518 0274 6661     		str	r6, [r4, #20]
