ARM GAS  C:\Users\czsta\AppData\Local\Temp\cc5yhJta.s 			page 1


   1              		.cpu cortex-m3
   2              		.eabi_attribute 20, 1
   3              		.eabi_attribute 21, 1
   4              		.eabi_attribute 23, 3
   5              		.eabi_attribute 24, 1
   6              		.eabi_attribute 25, 1
   7              		.eabi_attribute 26, 1
   8              		.eabi_attribute 30, 2
   9              		.eabi_attribute 34, 1
  10              		.eabi_attribute 18, 4
  11              		.file	"key.c"
  12              		.text
  13              		.section	.text.KEY_Init,"ax",%progbits
  14              		.align	1
  15              		.p2align 2,,3
  16              		.global	KEY_Init
  17              		.syntax unified
  18              		.thumb
  19              		.thumb_func
  20              		.fpu softvfp
  22              	KEY_Init:
  23              		@ args = 0, pretend = 0, frame = 0
  24              		@ frame_needed = 0, uses_anonymous_args = 0
  25 0000 08B5     		push	{r3, lr}
  26 0002 174B     		ldr	r3, .L4
  27 0004 0120     		movs	r0, #1
  28 0006 9A69     		ldr	r2, [r3, #24]
  29 0008 42F00402 		orr	r2, r2, #4
  30 000c 9A61     		str	r2, [r3, #24]
  31 000e 9A69     		ldr	r2, [r3, #24]
  32 0010 42F01002 		orr	r2, r2, #16
  33 0014 9A61     		str	r2, [r3, #24]
  34 0016 FFF7FEFF 		bl	JTAG_Set
  35 001a 124B     		ldr	r3, .L4+4
  36 001c 124A     		ldr	r2, .L4+8
  37 001e 1968     		ldr	r1, [r3]
  38 0020 21F00F01 		bic	r1, r1, #15
  39 0024 1960     		str	r1, [r3]
  40 0026 1968     		ldr	r1, [r3]
  41 0028 41F00801 		orr	r1, r1, #8
  42 002c 1960     		str	r1, [r3]
  43 002e 5968     		ldr	r1, [r3, #4]
  44 0030 21F07041 		bic	r1, r1, #-268435456
  45 0034 5960     		str	r1, [r3, #4]
  46 0036 5968     		ldr	r1, [r3, #4]
  47 0038 41F00041 		orr	r1, r1, #-2147483648
  48 003c 5960     		str	r1, [r3, #4]
  49 003e D968     		ldr	r1, [r3, #12]
  50 0040 41F40041 		orr	r1, r1, #32768
  51 0044 D960     		str	r1, [r3, #12]
  52 0046 1368     		ldr	r3, [r2]
  53 0048 23F47003 		bic	r3, r3, #15728640
  54 004c 1360     		str	r3, [r2]
  55 004e 1368     		ldr	r3, [r2]
  56 0050 43F40003 		orr	r3, r3, #8388608
  57 0054 1360     		str	r3, [r2]
  58 0056 D368     		ldr	r3, [r2, #12]
ARM GAS  C:\Users\czsta\AppData\Local\Temp\cc5yhJta.s 			page 2


  59 0058 43F02003 		orr	r3, r3, #32
  60 005c D360     		str	r3, [r2, #12]
  61 005e 08BD     		pop	{r3, pc}
  62              	.L5:
  63              		.align	2
  64              	.L4:
  65 0060 00100240 		.word	1073876992
  66 0064 00080140 		.word	1073809408
  67 0068 00100140 		.word	1073811456
  69              		.section	.text.KEY_Scan,"ax",%progbits
  70              		.align	1
  71              		.p2align 2,,3
  72              		.global	KEY_Scan
  73              		.syntax unified
  74              		.thumb
  75              		.thumb_func
  76              		.fpu softvfp
  78              	KEY_Scan:
  79              		@ args = 0, pretend = 0, frame = 0
  80              		@ frame_needed = 0, uses_anonymous_args = 0
  81 0000 10B5     		push	{r4, lr}
  82 0002 C8B1     		cbz	r0, .L7
  83 0004 0123     		movs	r3, #1
  84 0006 1B4C     		ldr	r4, .L27
  85 0008 2370     		strb	r3, [r4]
  86              	.L8:
  87 000a 1B4B     		ldr	r3, .L27+4
  88 000c 1B68     		ldr	r3, [r3]
  89 000e 13B1     		cbz	r3, .L10
  90 0010 1A4B     		ldr	r3, .L27+8
  91 0012 1B68     		ldr	r3, [r3]
  92 0014 13BB     		cbnz	r3, .L26
  93              	.L10:
  94 0016 0A20     		movs	r0, #10
  95 0018 FFF7FEFF 		bl	delay_ms
  96 001c 0022     		movs	r2, #0
  97 001e 164B     		ldr	r3, .L27+4
  98 0020 2270     		strb	r2, [r4]
  99 0022 1B68     		ldr	r3, [r3]
 100 0024 0BB3     		cbz	r3, .L13
 101 0026 154B     		ldr	r3, .L27+8
 102 0028 1B68     		ldr	r3, [r3]
 103 002a E3B1     		cbz	r3, .L14
 104 002c 144B     		ldr	r3, .L27+12
 105 002e 1B68     		ldr	r3, [r3]
 106 0030 012B     		cmp	r3, #1
 107 0032 1CD0     		beq	.L15
 108              	.L12:
 109 0034 0020     		movs	r0, #0
 110 0036 10BD     		pop	{r4, pc}
 111              	.L7:
 112 0038 0E4C     		ldr	r4, .L27
 113 003a 2378     		ldrb	r3, [r4]	@ zero_extendqisi2
 114 003c 002B     		cmp	r3, #0
 115 003e E4D1     		bne	.L8
 116              	.L9:
 117 0040 0D4B     		ldr	r3, .L27+4
ARM GAS  C:\Users\czsta\AppData\Local\Temp\cc5yhJta.s 			page 3


 118 0042 1B68     		ldr	r3, [r3]
 119 0044 012B     		cmp	r3, #1
 120 0046 F5D1     		bne	.L12
 121 0048 0C4B     		ldr	r3, .L27+8
 122 004a 1B68     		ldr	r3, [r3]
 123 004c 012B     		cmp	r3, #1
 124 004e F1D1     		bne	.L12
 125 0050 0B4A     		ldr	r2, .L27+12
 126 0052 1068     		ldr	r0, [r2]
 127 0054 0028     		cmp	r0, #0
 128 0056 EDD1     		bne	.L12
 129 0058 2370     		strb	r3, [r4]
 130 005a 10BD     		pop	{r4, pc}
 131              	.L26:
 132 005c 084B     		ldr	r3, .L27+12
 133 005e 1B68     		ldr	r3, [r3]
 134 0060 012B     		cmp	r3, #1
 135 0062 EDD1     		bne	.L9
 136 0064 D7E7     		b	.L10
 137              	.L14:
 138 0066 0220     		movs	r0, #2
 139 0068 10BD     		pop	{r4, pc}
 140              	.L13:
 141 006a 0120     		movs	r0, #1
 142 006c 10BD     		pop	{r4, pc}
 143              	.L15:
 144 006e 0320     		movs	r0, #3
 145 0070 10BD     		pop	{r4, pc}
 146              	.L28:
 147 0072 00BF     		.align	2
 148              	.L27:
 149 0074 00000000 		.word	.LANCHOR0
 150 0078 14012242 		.word	1109524756
 151 007c 3C012142 		.word	1109459260
 152 0080 00012142 		.word	1109459200
 154              		.section	.data.key_up.5040,"aw",%progbits
 155              		.set	.LANCHOR0,. + 0
 158              	key_up.5040:
 159 0000 01       		.byte	1
 160              		.ident	"GCC: (GNU Tools for Arm Embedded Processors 7-2018-q2-update) 7.3.1 20180622 (release) [AR
ARM GAS  C:\Users\czsta\AppData\Local\Temp\cc5yhJta.s 			page 4


DEFINED SYMBOLS
                            *ABS*:00000000 key.c
C:\Users\czsta\AppData\Local\Temp\cc5yhJta.s:14     .text.KEY_Init:00000000 $t
C:\Users\czsta\AppData\Local\Temp\cc5yhJta.s:22     .text.KEY_Init:00000000 KEY_Init
C:\Users\czsta\AppData\Local\Temp\cc5yhJta.s:65     .text.KEY_Init:00000060 $d
C:\Users\czsta\AppData\Local\Temp\cc5yhJta.s:70     .text.KEY_Scan:00000000 $t
C:\Users\czsta\AppData\Local\Temp\cc5yhJta.s:78     .text.KEY_Scan:00000000 KEY_Scan
C:\Users\czsta\AppData\Local\Temp\cc5yhJta.s:149    .text.KEY_Scan:00000074 $d
C:\Users\czsta\AppData\Local\Temp\cc5yhJta.s:158    .data.key_up.5040:00000000 key_up.5040

UNDEFINED SYMBOLS
JTAG_Set
delay_ms
