ARM GAS  C:\Users\czsta\AppData\Local\Temp\ccaq1QvM.s 			page 1


   1              		.cpu cortex-m3
   2              		.eabi_attribute 20, 1
   3              		.eabi_attribute 21, 1
   4              		.eabi_attribute 23, 3
   5              		.eabi_attribute 24, 1
   6              		.eabi_attribute 25, 1
   7              		.eabi_attribute 26, 1
   8              		.eabi_attribute 30, 2
   9              		.eabi_attribute 34, 1
  10              		.eabi_attribute 18, 4
  11              		.file	"test.c"
  12              		.text
  13              		.section	.text.startup.main,"ax",%progbits
  14              		.align	1
  15              		.p2align 2,,3
  16              		.global	main
  17              		.syntax unified
  18              		.thumb
  19              		.thumb_func
  20              		.fpu softvfp
  22              	main:
  23              		@ args = 0, pretend = 0, frame = 16
  24              		@ frame_needed = 0, uses_anonymous_args = 0
  25 0000 2DE9F04F 		push	{r4, r5, r6, r7, r8, r9, r10, fp, lr}
  26 0004 0920     		movs	r0, #9
  27 0006 87B0     		sub	sp, sp, #28
  28 0008 FFF7FEFF 		bl	Stm32_Clock_Init
  29 000c 4FF41651 		mov	r1, #9600
  30 0010 4820     		movs	r0, #72
  31 0012 FFF7FEFF 		bl	uart_init
  32 0016 4820     		movs	r0, #72
  33 0018 FFF7FEFF 		bl	delay_init
  34 001c FFF7FEFF 		bl	LED_Init
  35 0020 FFF7FEFF 		bl	LCD_Init
  36 0024 4FF47843 		mov	r3, #63488
  37 0028 D74A     		ldr	r2, .L5
  38 002a DFF87493 		ldr	r9, .L5+24
  39 002e 0DF10C0A 		add	r10, sp, #12
  40 0032 9288     		ldrh	r2, [r2, #4]
  41 0034 5046     		mov	r0, r10
  42 0036 D549     		ldr	r1, .L5+4
  43 0038 A9F80030 		strh	r3, [r9]	@ movhi
  44 003c FFF7FEFF 		bl	sprintf
  45 0040 DFF860B3 		ldr	fp, .L5+28
  46              	.L2:
  47 0044 1827     		movs	r7, #24
  48 0046 4FF47848 		mov	r8, #63488
  49 004a 1024     		movs	r4, #16
  50 004c 0C26     		movs	r6, #12
  51 004e 4FF6FF70 		movw	r0, #65535
  52 0052 FFF7FEFF 		bl	LCD_Clear
  53 0056 3B46     		mov	r3, r7
  54 0058 CDE9007B 		strd	r7, fp, [sp]
  55 005c C822     		movs	r2, #200
  56 005e 2821     		movs	r1, #40
  57 0060 1E20     		movs	r0, #30
  58 0062 A9F80080 		strh	r8, [r9]	@ movhi
ARM GAS  C:\Users\czsta\AppData\Local\Temp\ccaq1QvM.s 			page 2


  59 0066 FFF7FEFF 		bl	LCD_ShowString
  60 006a C94B     		ldr	r3, .L5+8
  61 006c C822     		movs	r2, #200
  62 006e CDE90043 		strd	r4, r3, [sp]
  63 0072 4621     		movs	r1, #70
  64 0074 2346     		mov	r3, r4
  65 0076 1E20     		movs	r0, #30
  66 0078 FFF7FEFF 		bl	LCD_ShowString
  67 007c C54A     		ldr	r2, .L5+12
  68 007e 2346     		mov	r3, r4
  69 0080 0192     		str	r2, [sp, #4]
  70 0082 0094     		str	r4, [sp]
  71 0084 C822     		movs	r2, #200
  72 0086 5A21     		movs	r1, #90
  73 0088 1E20     		movs	r0, #30
  74 008a FFF7FEFF 		bl	LCD_ShowString
  75 008e 2346     		mov	r3, r4
  76 0090 CDE9004A 		strd	r4, r10, [sp]
  77 0094 C822     		movs	r2, #200
  78 0096 6E21     		movs	r1, #110
  79 0098 1E20     		movs	r0, #30
  80 009a FFF7FEFF 		bl	LCD_ShowString
  81 009e BE49     		ldr	r1, .L5+16
  82 00a0 BE4D     		ldr	r5, .L5+20
  83 00a2 C822     		movs	r2, #200
  84 00a4 CDE90061 		strd	r6, r1, [sp]
  85 00a8 3346     		mov	r3, r6
  86 00aa 8221     		movs	r1, #130
  87 00ac 1E20     		movs	r0, #30
  88 00ae FFF7FEFF 		bl	LCD_ShowString
  89 00b2 2B68     		ldr	r3, [r5]
  90 00b4 4FF47A70 		mov	r0, #1000
  91 00b8 B3FA83F3 		clz	r3, r3
  92 00bc 5B09     		lsrs	r3, r3, #5
  93 00be 2B60     		str	r3, [r5]
  94 00c0 FFF7FEFF 		bl	delay_ms
  95 00c4 0020     		movs	r0, #0
  96 00c6 FFF7FEFF 		bl	LCD_Clear
  97 00ca 3B46     		mov	r3, r7
  98 00cc CDE9007B 		strd	r7, fp, [sp]
  99 00d0 C822     		movs	r2, #200
 100 00d2 2821     		movs	r1, #40
 101 00d4 1E20     		movs	r0, #30
 102 00d6 A9F80080 		strh	r8, [r9]	@ movhi
 103 00da FFF7FEFF 		bl	LCD_ShowString
 104 00de AC4B     		ldr	r3, .L5+8
 105 00e0 0094     		str	r4, [sp]
 106 00e2 0193     		str	r3, [sp, #4]
 107 00e4 C822     		movs	r2, #200
 108 00e6 2346     		mov	r3, r4
 109 00e8 4621     		movs	r1, #70
 110 00ea 1E20     		movs	r0, #30
 111 00ec FFF7FEFF 		bl	LCD_ShowString
 112 00f0 A84A     		ldr	r2, .L5+12
 113 00f2 2346     		mov	r3, r4
 114 00f4 0192     		str	r2, [sp, #4]
 115 00f6 0094     		str	r4, [sp]
ARM GAS  C:\Users\czsta\AppData\Local\Temp\ccaq1QvM.s 			page 3


 116 00f8 C822     		movs	r2, #200
 117 00fa 5A21     		movs	r1, #90
 118 00fc 1E20     		movs	r0, #30
 119 00fe FFF7FEFF 		bl	LCD_ShowString
 120 0102 2346     		mov	r3, r4
 121 0104 CDE9004A 		strd	r4, r10, [sp]
 122 0108 C822     		movs	r2, #200
 123 010a 6E21     		movs	r1, #110
 124 010c 1E20     		movs	r0, #30
 125 010e FFF7FEFF 		bl	LCD_ShowString
 126 0112 A149     		ldr	r1, .L5+16
 127 0114 C822     		movs	r2, #200
 128 0116 0191     		str	r1, [sp, #4]
 129 0118 3346     		mov	r3, r6
 130 011a 8221     		movs	r1, #130
 131 011c 0096     		str	r6, [sp]
 132 011e 1E20     		movs	r0, #30
 133 0120 FFF7FEFF 		bl	LCD_ShowString
 134 0124 2B68     		ldr	r3, [r5]
 135 0126 4FF47A70 		mov	r0, #1000
 136 012a B3FA83F3 		clz	r3, r3
 137 012e 5B09     		lsrs	r3, r3, #5
 138 0130 2B60     		str	r3, [r5]
 139 0132 FFF7FEFF 		bl	delay_ms
 140 0136 1F20     		movs	r0, #31
 141 0138 FFF7FEFF 		bl	LCD_Clear
 142 013c 3B46     		mov	r3, r7
 143 013e CDE9007B 		strd	r7, fp, [sp]
 144 0142 C822     		movs	r2, #200
 145 0144 2821     		movs	r1, #40
 146 0146 1E20     		movs	r0, #30
 147 0148 A9F80080 		strh	r8, [r9]	@ movhi
 148 014c FFF7FEFF 		bl	LCD_ShowString
 149 0150 8F4B     		ldr	r3, .L5+8
 150 0152 0094     		str	r4, [sp]
 151 0154 0193     		str	r3, [sp, #4]
 152 0156 C822     		movs	r2, #200
 153 0158 2346     		mov	r3, r4
 154 015a 4621     		movs	r1, #70
 155 015c 1E20     		movs	r0, #30
 156 015e FFF7FEFF 		bl	LCD_ShowString
 157 0162 8C4A     		ldr	r2, .L5+12
 158 0164 2346     		mov	r3, r4
 159 0166 0192     		str	r2, [sp, #4]
 160 0168 0094     		str	r4, [sp]
 161 016a C822     		movs	r2, #200
 162 016c 5A21     		movs	r1, #90
 163 016e 1E20     		movs	r0, #30
 164 0170 FFF7FEFF 		bl	LCD_ShowString
 165 0174 2346     		mov	r3, r4
 166 0176 CDE9004A 		strd	r4, r10, [sp]
 167 017a C822     		movs	r2, #200
 168 017c 6E21     		movs	r1, #110
 169 017e 1E20     		movs	r0, #30
 170 0180 FFF7FEFF 		bl	LCD_ShowString
 171 0184 8449     		ldr	r1, .L5+16
 172 0186 C822     		movs	r2, #200
ARM GAS  C:\Users\czsta\AppData\Local\Temp\ccaq1QvM.s 			page 4


 173 0188 0191     		str	r1, [sp, #4]
 174 018a 3346     		mov	r3, r6
 175 018c 8221     		movs	r1, #130
 176 018e 0096     		str	r6, [sp]
 177 0190 1E20     		movs	r0, #30
 178 0192 FFF7FEFF 		bl	LCD_ShowString
 179 0196 2B68     		ldr	r3, [r5]
 180 0198 4FF47A70 		mov	r0, #1000
 181 019c B3FA83F3 		clz	r3, r3
 182 01a0 5B09     		lsrs	r3, r3, #5
 183 01a2 2B60     		str	r3, [r5]
 184 01a4 FFF7FEFF 		bl	delay_ms
 185 01a8 4046     		mov	r0, r8
 186 01aa FFF7FEFF 		bl	LCD_Clear
 187 01ae 3B46     		mov	r3, r7
 188 01b0 CDE9007B 		strd	r7, fp, [sp]
 189 01b4 C822     		movs	r2, #200
 190 01b6 2821     		movs	r1, #40
 191 01b8 1E20     		movs	r0, #30
 192 01ba A9F80080 		strh	r8, [r9]	@ movhi
 193 01be FFF7FEFF 		bl	LCD_ShowString
 194 01c2 734B     		ldr	r3, .L5+8
 195 01c4 0094     		str	r4, [sp]
 196 01c6 0193     		str	r3, [sp, #4]
 197 01c8 C822     		movs	r2, #200
 198 01ca 2346     		mov	r3, r4
 199 01cc 4621     		movs	r1, #70
 200 01ce 1E20     		movs	r0, #30
 201 01d0 FFF7FEFF 		bl	LCD_ShowString
 202 01d4 6F4A     		ldr	r2, .L5+12
 203 01d6 2346     		mov	r3, r4
 204 01d8 0192     		str	r2, [sp, #4]
 205 01da 0094     		str	r4, [sp]
 206 01dc C822     		movs	r2, #200
 207 01de 5A21     		movs	r1, #90
 208 01e0 1E20     		movs	r0, #30
 209 01e2 FFF7FEFF 		bl	LCD_ShowString
 210 01e6 2346     		mov	r3, r4
 211 01e8 CDE9004A 		strd	r4, r10, [sp]
 212 01ec C822     		movs	r2, #200
 213 01ee 6E21     		movs	r1, #110
 214 01f0 1E20     		movs	r0, #30
 215 01f2 FFF7FEFF 		bl	LCD_ShowString
 216 01f6 6849     		ldr	r1, .L5+16
 217 01f8 C822     		movs	r2, #200
 218 01fa 0191     		str	r1, [sp, #4]
 219 01fc 3346     		mov	r3, r6
 220 01fe 8221     		movs	r1, #130
 221 0200 0096     		str	r6, [sp]
 222 0202 1E20     		movs	r0, #30
 223 0204 FFF7FEFF 		bl	LCD_ShowString
 224 0208 2B68     		ldr	r3, [r5]
 225 020a 4FF47A70 		mov	r0, #1000
 226 020e B3FA83F3 		clz	r3, r3
 227 0212 5B09     		lsrs	r3, r3, #5
 228 0214 2B60     		str	r3, [r5]
 229 0216 FFF7FEFF 		bl	delay_ms
ARM GAS  C:\Users\czsta\AppData\Local\Temp\ccaq1QvM.s 			page 5


 230 021a 4FF61F00 		movw	r0, #63519
 231 021e FFF7FEFF 		bl	LCD_Clear
 232 0222 3B46     		mov	r3, r7
 233 0224 CDE9007B 		strd	r7, fp, [sp]
 234 0228 C822     		movs	r2, #200
 235 022a 2821     		movs	r1, #40
 236 022c 1E20     		movs	r0, #30
 237 022e A9F80080 		strh	r8, [r9]	@ movhi
 238 0232 FFF7FEFF 		bl	LCD_ShowString
 239 0236 564B     		ldr	r3, .L5+8
 240 0238 0094     		str	r4, [sp]
 241 023a 0193     		str	r3, [sp, #4]
 242 023c C822     		movs	r2, #200
 243 023e 2346     		mov	r3, r4
 244 0240 4621     		movs	r1, #70
 245 0242 1E20     		movs	r0, #30
 246 0244 FFF7FEFF 		bl	LCD_ShowString
 247 0248 524A     		ldr	r2, .L5+12
 248 024a 2346     		mov	r3, r4
 249 024c 0192     		str	r2, [sp, #4]
 250 024e 0094     		str	r4, [sp]
 251 0250 C822     		movs	r2, #200
 252 0252 5A21     		movs	r1, #90
 253 0254 1E20     		movs	r0, #30
 254 0256 FFF7FEFF 		bl	LCD_ShowString
 255 025a 2346     		mov	r3, r4
 256 025c CDE9004A 		strd	r4, r10, [sp]
 257 0260 C822     		movs	r2, #200
 258 0262 6E21     		movs	r1, #110
 259 0264 1E20     		movs	r0, #30
 260 0266 FFF7FEFF 		bl	LCD_ShowString
 261 026a 4B49     		ldr	r1, .L5+16
 262 026c C822     		movs	r2, #200
 263 026e 0191     		str	r1, [sp, #4]
 264 0270 3346     		mov	r3, r6
 265 0272 8221     		movs	r1, #130
 266 0274 0096     		str	r6, [sp]
 267 0276 1E20     		movs	r0, #30
 268 0278 FFF7FEFF 		bl	LCD_ShowString
 269 027c 2B68     		ldr	r3, [r5]
 270 027e 4FF47A70 		mov	r0, #1000
 271 0282 B3FA83F3 		clz	r3, r3
 272 0286 5B09     		lsrs	r3, r3, #5
 273 0288 2B60     		str	r3, [r5]
 274 028a FFF7FEFF 		bl	delay_ms
 275 028e 4FF4FC60 		mov	r0, #2016
 276 0292 FFF7FEFF 		bl	LCD_Clear
 277 0296 3B46     		mov	r3, r7
 278 0298 CDE9007B 		strd	r7, fp, [sp]
 279 029c C822     		movs	r2, #200
 280 029e 2821     		movs	r1, #40
 281 02a0 1E20     		movs	r0, #30
 282 02a2 A9F80080 		strh	r8, [r9]	@ movhi
 283 02a6 FFF7FEFF 		bl	LCD_ShowString
 284 02aa 394B     		ldr	r3, .L5+8
 285 02ac 0094     		str	r4, [sp]
 286 02ae 0193     		str	r3, [sp, #4]
ARM GAS  C:\Users\czsta\AppData\Local\Temp\ccaq1QvM.s 			page 6


 287 02b0 C822     		movs	r2, #200
 288 02b2 2346     		mov	r3, r4
 289 02b4 4621     		movs	r1, #70
 290 02b6 1E20     		movs	r0, #30
 291 02b8 FFF7FEFF 		bl	LCD_ShowString
 292 02bc 354A     		ldr	r2, .L5+12
 293 02be 2346     		mov	r3, r4
 294 02c0 0192     		str	r2, [sp, #4]
 295 02c2 0094     		str	r4, [sp]
 296 02c4 C822     		movs	r2, #200
 297 02c6 5A21     		movs	r1, #90
 298 02c8 1E20     		movs	r0, #30
 299 02ca FFF7FEFF 		bl	LCD_ShowString
 300 02ce 2346     		mov	r3, r4
 301 02d0 CDE9004A 		strd	r4, r10, [sp]
 302 02d4 C822     		movs	r2, #200
 303 02d6 6E21     		movs	r1, #110
 304 02d8 1E20     		movs	r0, #30
 305 02da FFF7FEFF 		bl	LCD_ShowString
 306 02de 2E49     		ldr	r1, .L5+16
 307 02e0 C822     		movs	r2, #200
 308 02e2 0191     		str	r1, [sp, #4]
 309 02e4 3346     		mov	r3, r6
 310 02e6 8221     		movs	r1, #130
 311 02e8 0096     		str	r6, [sp]
 312 02ea 1E20     		movs	r0, #30
 313 02ec FFF7FEFF 		bl	LCD_ShowString
 314 02f0 2B68     		ldr	r3, [r5]
 315 02f2 4FF47A70 		mov	r0, #1000
 316 02f6 B3FA83F3 		clz	r3, r3
 317 02fa 5B09     		lsrs	r3, r3, #5
 318 02fc 2B60     		str	r3, [r5]
 319 02fe FFF7FEFF 		bl	delay_ms
 320 0302 47F6FF70 		movw	r0, #32767
 321 0306 FFF7FEFF 		bl	LCD_Clear
 322 030a 3B46     		mov	r3, r7
 323 030c CDE9007B 		strd	r7, fp, [sp]
 324 0310 C822     		movs	r2, #200
 325 0312 2821     		movs	r1, #40
 326 0314 1E20     		movs	r0, #30
 327 0316 A9F80080 		strh	r8, [r9]	@ movhi
 328 031a FFF7FEFF 		bl	LCD_ShowString
 329 031e 1C4B     		ldr	r3, .L5+8
 330 0320 0094     		str	r4, [sp]
 331 0322 0193     		str	r3, [sp, #4]
 332 0324 C822     		movs	r2, #200
 333 0326 2346     		mov	r3, r4
 334 0328 4621     		movs	r1, #70
 335 032a 1E20     		movs	r0, #30
 336 032c FFF7FEFF 		bl	LCD_ShowString
 337 0330 184A     		ldr	r2, .L5+12
 338 0332 2346     		mov	r3, r4
 339 0334 0192     		str	r2, [sp, #4]
 340 0336 0094     		str	r4, [sp]
 341 0338 C822     		movs	r2, #200
 342 033a 5A21     		movs	r1, #90
 343 033c 1E20     		movs	r0, #30
ARM GAS  C:\Users\czsta\AppData\Local\Temp\ccaq1QvM.s 			page 7


 344 033e FFF7FEFF 		bl	LCD_ShowString
 345 0342 2346     		mov	r3, r4
 346 0344 CDE9004A 		strd	r4, r10, [sp]
 347 0348 C822     		movs	r2, #200
 348 034a 6E21     		movs	r1, #110
 349 034c 1E20     		movs	r0, #30
 350 034e FFF7FEFF 		bl	LCD_ShowString
 351 0352 1149     		ldr	r1, .L5+16
 352 0354 C822     		movs	r2, #200
 353 0356 0191     		str	r1, [sp, #4]
 354 0358 3346     		mov	r3, r6
 355 035a 8221     		movs	r1, #130
 356 035c 0096     		str	r6, [sp]
 357 035e 1E20     		movs	r0, #30
 358 0360 FFF7FEFF 		bl	LCD_ShowString
 359 0364 2B68     		ldr	r3, [r5]
 360 0366 4FF47A70 		mov	r0, #1000
 361 036a B3FA83F3 		clz	r3, r3
 362 036e 5B09     		lsrs	r3, r3, #5
 363 0370 2B60     		str	r3, [r5]
 364 0372 FFF7FEFF 		bl	delay_ms
 365 0376 4FF6E070 		movw	r0, #65504
 366 037a FFF7FEFF 		bl	LCD_Clear
 367 037e 3B46     		mov	r3, r7
 368 0380 CDE9007B 		strd	r7, fp, [sp]
 369 0384 C822     		movs	r2, #200
 370 0386 0FE0     		b	.L6
 371              	.L7:
 372              		.align	2
 373              	.L5:
 374 0388 00000000 		.word	lcddev
 375 038c 00000000 		.word	.LC0
 376 0390 1C000000 		.word	.LC2
 377 0394 28000000 		.word	.LC3
 378 0398 38000000 		.word	.LC4
 379 039c A0012142 		.word	1109459360
 380 03a0 00000000 		.word	POINT_COLOR
 381 03a4 0C000000 		.word	.LC1
 382              	.L6:
 383 03a8 2821     		movs	r1, #40
 384 03aa 1E20     		movs	r0, #30
 385 03ac A9F80080 		strh	r8, [r9]	@ movhi
 386 03b0 FFF7FEFF 		bl	LCD_ShowString
 387 03b4 8B4B     		ldr	r3, .L8
 388 03b6 0094     		str	r4, [sp]
 389 03b8 0193     		str	r3, [sp, #4]
 390 03ba C822     		movs	r2, #200
 391 03bc 2346     		mov	r3, r4
 392 03be 4621     		movs	r1, #70
 393 03c0 1E20     		movs	r0, #30
 394 03c2 FFF7FEFF 		bl	LCD_ShowString
 395 03c6 884A     		ldr	r2, .L8+4
 396 03c8 2346     		mov	r3, r4
 397 03ca 0192     		str	r2, [sp, #4]
 398 03cc 0094     		str	r4, [sp]
 399 03ce C822     		movs	r2, #200
 400 03d0 5A21     		movs	r1, #90
ARM GAS  C:\Users\czsta\AppData\Local\Temp\ccaq1QvM.s 			page 8


 401 03d2 1E20     		movs	r0, #30
 402 03d4 FFF7FEFF 		bl	LCD_ShowString
 403 03d8 2346     		mov	r3, r4
 404 03da CDE9004A 		strd	r4, r10, [sp]
 405 03de C822     		movs	r2, #200
 406 03e0 6E21     		movs	r1, #110
 407 03e2 1E20     		movs	r0, #30
 408 03e4 FFF7FEFF 		bl	LCD_ShowString
 409 03e8 8049     		ldr	r1, .L8+8
 410 03ea C822     		movs	r2, #200
 411 03ec 0191     		str	r1, [sp, #4]
 412 03ee 3346     		mov	r3, r6
 413 03f0 8221     		movs	r1, #130
 414 03f2 0096     		str	r6, [sp]
 415 03f4 1E20     		movs	r0, #30
 416 03f6 FFF7FEFF 		bl	LCD_ShowString
 417 03fa 2B68     		ldr	r3, [r5]
 418 03fc 4FF47A70 		mov	r0, #1000
 419 0400 B3FA83F3 		clz	r3, r3
 420 0404 5B09     		lsrs	r3, r3, #5
 421 0406 2B60     		str	r3, [r5]
 422 0408 FFF7FEFF 		bl	delay_ms
 423 040c 4FF60740 		movw	r0, #64519
 424 0410 FFF7FEFF 		bl	LCD_Clear
 425 0414 3B46     		mov	r3, r7
 426 0416 CDE9007B 		strd	r7, fp, [sp]
 427 041a C822     		movs	r2, #200
 428 041c 2821     		movs	r1, #40
 429 041e 1E20     		movs	r0, #30
 430 0420 A9F80080 		strh	r8, [r9]	@ movhi
 431 0424 FFF7FEFF 		bl	LCD_ShowString
 432 0428 6E4B     		ldr	r3, .L8
 433 042a 0094     		str	r4, [sp]
 434 042c 0193     		str	r3, [sp, #4]
 435 042e C822     		movs	r2, #200
 436 0430 2346     		mov	r3, r4
 437 0432 4621     		movs	r1, #70
 438 0434 1E20     		movs	r0, #30
 439 0436 FFF7FEFF 		bl	LCD_ShowString
 440 043a 6B4A     		ldr	r2, .L8+4
 441 043c 2346     		mov	r3, r4
 442 043e 0192     		str	r2, [sp, #4]
 443 0440 0094     		str	r4, [sp]
 444 0442 C822     		movs	r2, #200
 445 0444 5A21     		movs	r1, #90
 446 0446 1E20     		movs	r0, #30
 447 0448 FFF7FEFF 		bl	LCD_ShowString
 448 044c 2346     		mov	r3, r4
 449 044e CDE9004A 		strd	r4, r10, [sp]
 450 0452 C822     		movs	r2, #200
 451 0454 6E21     		movs	r1, #110
 452 0456 1E20     		movs	r0, #30
 453 0458 FFF7FEFF 		bl	LCD_ShowString
 454 045c 6349     		ldr	r1, .L8+8
 455 045e C822     		movs	r2, #200
 456 0460 0191     		str	r1, [sp, #4]
 457 0462 3346     		mov	r3, r6
ARM GAS  C:\Users\czsta\AppData\Local\Temp\ccaq1QvM.s 			page 9


 458 0464 8221     		movs	r1, #130
 459 0466 0096     		str	r6, [sp]
 460 0468 1E20     		movs	r0, #30
 461 046a FFF7FEFF 		bl	LCD_ShowString
 462 046e 2B68     		ldr	r3, [r5]
 463 0470 4FF47A70 		mov	r0, #1000
 464 0474 B3FA83F3 		clz	r3, r3
 465 0478 5B09     		lsrs	r3, r3, #5
 466 047a 2B60     		str	r3, [r5]
 467 047c FFF7FEFF 		bl	delay_ms
 468 0480 48F23040 		movw	r0, #33840
 469 0484 FFF7FEFF 		bl	LCD_Clear
 470 0488 3B46     		mov	r3, r7
 471 048a CDE9007B 		strd	r7, fp, [sp]
 472 048e C822     		movs	r2, #200
 473 0490 2821     		movs	r1, #40
 474 0492 1E20     		movs	r0, #30
 475 0494 A9F80080 		strh	r8, [r9]	@ movhi
 476 0498 FFF7FEFF 		bl	LCD_ShowString
 477 049c 514B     		ldr	r3, .L8
 478 049e 0094     		str	r4, [sp]
 479 04a0 0193     		str	r3, [sp, #4]
 480 04a2 C822     		movs	r2, #200
 481 04a4 2346     		mov	r3, r4
 482 04a6 4621     		movs	r1, #70
 483 04a8 1E20     		movs	r0, #30
 484 04aa FFF7FEFF 		bl	LCD_ShowString
 485 04ae 4E4A     		ldr	r2, .L8+4
 486 04b0 2346     		mov	r3, r4
 487 04b2 0192     		str	r2, [sp, #4]
 488 04b4 0094     		str	r4, [sp]
 489 04b6 C822     		movs	r2, #200
 490 04b8 5A21     		movs	r1, #90
 491 04ba 1E20     		movs	r0, #30
 492 04bc FFF7FEFF 		bl	LCD_ShowString
 493 04c0 2346     		mov	r3, r4
 494 04c2 CDE9004A 		strd	r4, r10, [sp]
 495 04c6 C822     		movs	r2, #200
 496 04c8 6E21     		movs	r1, #110
 497 04ca 1E20     		movs	r0, #30
 498 04cc FFF7FEFF 		bl	LCD_ShowString
 499 04d0 4649     		ldr	r1, .L8+8
 500 04d2 C822     		movs	r2, #200
 501 04d4 0191     		str	r1, [sp, #4]
 502 04d6 3346     		mov	r3, r6
 503 04d8 8221     		movs	r1, #130
 504 04da 0096     		str	r6, [sp]
 505 04dc 1E20     		movs	r0, #30
 506 04de FFF7FEFF 		bl	LCD_ShowString
 507 04e2 2B68     		ldr	r3, [r5]
 508 04e4 4FF47A70 		mov	r0, #1000
 509 04e8 B3FA83F3 		clz	r3, r3
 510 04ec 5B09     		lsrs	r3, r3, #5
 511 04ee 2B60     		str	r3, [r5]
 512 04f0 FFF7FEFF 		bl	delay_ms
 513 04f4 4CF21860 		movw	r0, #50712
 514 04f8 FFF7FEFF 		bl	LCD_Clear
ARM GAS  C:\Users\czsta\AppData\Local\Temp\ccaq1QvM.s 			page 10


 515 04fc 3B46     		mov	r3, r7
 516 04fe CDE9007B 		strd	r7, fp, [sp]
 517 0502 C822     		movs	r2, #200
 518 0504 2821     		movs	r1, #40
 519 0506 1E20     		movs	r0, #30
 520 0508 A9F80080 		strh	r8, [r9]	@ movhi
 521 050c FFF7FEFF 		bl	LCD_ShowString
 522 0510 344B     		ldr	r3, .L8
 523 0512 0094     		str	r4, [sp]
 524 0514 0193     		str	r3, [sp, #4]
 525 0516 C822     		movs	r2, #200
 526 0518 2346     		mov	r3, r4
 527 051a 4621     		movs	r1, #70
 528 051c 1E20     		movs	r0, #30
 529 051e FFF7FEFF 		bl	LCD_ShowString
 530 0522 314A     		ldr	r2, .L8+4
 531 0524 2346     		mov	r3, r4
 532 0526 0192     		str	r2, [sp, #4]
 533 0528 0094     		str	r4, [sp]
 534 052a C822     		movs	r2, #200
 535 052c 5A21     		movs	r1, #90
 536 052e 1E20     		movs	r0, #30
 537 0530 FFF7FEFF 		bl	LCD_ShowString
 538 0534 2346     		mov	r3, r4
 539 0536 CDE9004A 		strd	r4, r10, [sp]
 540 053a C822     		movs	r2, #200
 541 053c 6E21     		movs	r1, #110
 542 053e 1E20     		movs	r0, #30
 543 0540 FFF7FEFF 		bl	LCD_ShowString
 544 0544 2949     		ldr	r1, .L8+8
 545 0546 C822     		movs	r2, #200
 546 0548 0191     		str	r1, [sp, #4]
 547 054a 3346     		mov	r3, r6
 548 054c 8221     		movs	r1, #130
 549 054e 0096     		str	r6, [sp]
 550 0550 1E20     		movs	r0, #30
 551 0552 FFF7FEFF 		bl	LCD_ShowString
 552 0556 2B68     		ldr	r3, [r5]
 553 0558 4FF47A70 		mov	r0, #1000
 554 055c B3FA83F3 		clz	r3, r3
 555 0560 5B09     		lsrs	r3, r3, #5
 556 0562 2B60     		str	r3, [r5]
 557 0564 FFF7FEFF 		bl	delay_ms
 558 0568 4BF64040 		movw	r0, #48192
 559 056c FFF7FEFF 		bl	LCD_Clear
 560 0570 3B46     		mov	r3, r7
 561 0572 0097     		str	r7, [sp]
 562 0574 CDF804B0 		str	fp, [sp, #4]
 563 0578 C822     		movs	r2, #200
 564 057a 2821     		movs	r1, #40
 565 057c 1E20     		movs	r0, #30
 566 057e A9F80080 		strh	r8, [r9]	@ movhi
 567 0582 FFF7FEFF 		bl	LCD_ShowString
 568 0586 174B     		ldr	r3, .L8
 569 0588 0094     		str	r4, [sp]
 570 058a 0193     		str	r3, [sp, #4]
 571 058c C822     		movs	r2, #200
ARM GAS  C:\Users\czsta\AppData\Local\Temp\ccaq1QvM.s 			page 11


 572 058e 2346     		mov	r3, r4
 573 0590 4621     		movs	r1, #70
 574 0592 1E20     		movs	r0, #30
 575 0594 FFF7FEFF 		bl	LCD_ShowString
 576 0598 134A     		ldr	r2, .L8+4
 577 059a 2346     		mov	r3, r4
 578 059c 0192     		str	r2, [sp, #4]
 579 059e 0094     		str	r4, [sp]
 580 05a0 C822     		movs	r2, #200
 581 05a2 5A21     		movs	r1, #90
 582 05a4 1E20     		movs	r0, #30
 583 05a6 FFF7FEFF 		bl	LCD_ShowString
 584 05aa 2346     		mov	r3, r4
 585 05ac 0094     		str	r4, [sp]
 586 05ae CDF804A0 		str	r10, [sp, #4]
 587 05b2 C822     		movs	r2, #200
 588 05b4 6E21     		movs	r1, #110
 589 05b6 1E20     		movs	r0, #30
 590 05b8 FFF7FEFF 		bl	LCD_ShowString
 591 05bc 0B49     		ldr	r1, .L8+8
 592 05be 3346     		mov	r3, r6
 593 05c0 0191     		str	r1, [sp, #4]
 594 05c2 0096     		str	r6, [sp]
 595 05c4 C822     		movs	r2, #200
 596 05c6 8221     		movs	r1, #130
 597 05c8 1E20     		movs	r0, #30
 598 05ca FFF7FEFF 		bl	LCD_ShowString
 599 05ce 2B68     		ldr	r3, [r5]
 600 05d0 4FF47A70 		mov	r0, #1000
 601 05d4 B3FA83F3 		clz	r3, r3
 602 05d8 5B09     		lsrs	r3, r3, #5
 603 05da 2B60     		str	r3, [r5]
 604 05dc FFF7FEFF 		bl	delay_ms
 605 05e0 30E5     		b	.L2
 606              	.L9:
 607 05e2 00BF     		.align	2
 608              	.L8:
 609 05e4 1C000000 		.word	.LC2
 610 05e8 28000000 		.word	.LC3
 611 05ec 38000000 		.word	.LC4
 613              		.section	.rodata.main.str1.4,"aMS",%progbits,1
 614              		.align	2
 615              	.LC0:
 616 0000 4C434420 		.ascii	"LCD ID:%04X\000"
 616      49443A25 
 616      30345800 
 617              	.LC1:
 618 000c 4D696E69 		.ascii	"Mini STM32 ^_^\000"
 618      2053544D 
 618      3332205E 
 618      5F5E00
 619 001b 00       		.space	1
 620              	.LC2:
 621 001c 5446544C 		.ascii	"TFTLCD TEST\000"
 621      43442054 
 621      45535400 
 622              	.LC3:
ARM GAS  C:\Users\czsta\AppData\Local\Temp\ccaq1QvM.s 			page 12


 623 0028 41544F4D 		.ascii	"ATOM@ALIENTEK\000"
 623      40414C49 
 623      454E5445 
 623      4B00
 624 0036 0000     		.space	2
 625              	.LC4:
 626 0038 32303134 		.ascii	"2014/3/7\000"
 626      2F332F37 
 626      00
 627              		.ident	"GCC: (GNU Tools for Arm Embedded Processors 7-2018-q2-update) 7.3.1 20180622 (release) [AR
ARM GAS  C:\Users\czsta\AppData\Local\Temp\ccaq1QvM.s 			page 13


DEFINED SYMBOLS
                            *ABS*:00000000 test.c
C:\Users\czsta\AppData\Local\Temp\ccaq1QvM.s:14     .text.startup.main:00000000 $t
C:\Users\czsta\AppData\Local\Temp\ccaq1QvM.s:22     .text.startup.main:00000000 main
C:\Users\czsta\AppData\Local\Temp\ccaq1QvM.s:374    .text.startup.main:00000388 $d
C:\Users\czsta\AppData\Local\Temp\ccaq1QvM.s:383    .text.startup.main:000003a8 $t
C:\Users\czsta\AppData\Local\Temp\ccaq1QvM.s:609    .text.startup.main:000005e4 $d
C:\Users\czsta\AppData\Local\Temp\ccaq1QvM.s:614    .rodata.main.str1.4:00000000 $d

UNDEFINED SYMBOLS
Stm32_Clock_Init
uart_init
delay_init
LED_Init
LCD_Init
sprintf
LCD_Clear
LCD_ShowString
delay_ms
lcddev
POINT_COLOR
