ARM GAS  C:\Users\czsta\AppData\Local\Temp\ccXZus5f.s 			page 1


   1              		.cpu cortex-m3
   2              		.eabi_attribute 20, 1
   3              		.eabi_attribute 21, 1
   4              		.eabi_attribute 23, 3
   5              		.eabi_attribute 24, 1
   6              		.eabi_attribute 25, 1
   7              		.eabi_attribute 26, 1
   8              		.eabi_attribute 30, 2
   9              		.eabi_attribute 34, 1
  10              		.eabi_attribute 18, 4
  11              		.file	"timer.c"
  12              		.text
  13              		.section	.text.TIM3_IRQHandler,"ax",%progbits
  14              		.align	1
  15              		.p2align 2,,3
  16              		.global	TIM3_IRQHandler
  17              		.syntax unified
  18              		.thumb
  19              		.thumb_func
  20              		.fpu softvfp
  22              	TIM3_IRQHandler:
  23              		@ args = 0, pretend = 0, frame = 0
  24              		@ frame_needed = 0, uses_anonymous_args = 0
  25              		@ link register save eliminated.
  26 0000 084B     		ldr	r3, .L7
  27 0002 1B8A     		ldrh	r3, [r3, #16]
  28 0004 DB07     		lsls	r3, r3, #31
  29 0006 05D5     		bpl	.L2
  30 0008 074A     		ldr	r2, .L7+4
  31 000a 1368     		ldr	r3, [r2]
  32 000c B3FA83F3 		clz	r3, r3
  33 0010 5B09     		lsrs	r3, r3, #5
  34 0012 1360     		str	r3, [r2]
  35              	.L2:
  36 0014 034A     		ldr	r2, .L7
  37 0016 138A     		ldrh	r3, [r2, #16]
  38 0018 23F00103 		bic	r3, r3, #1
  39 001c 1B04     		lsls	r3, r3, #16
  40 001e 1B0C     		lsrs	r3, r3, #16
  41 0020 1382     		strh	r3, [r2, #16]	@ movhi
  42 0022 7047     		bx	lr
  43              	.L8:
  44              		.align	2
  45              	.L7:
  46 0024 00040040 		.word	1073742848
  47 0028 88812242 		.word	1109557640
  49              		.section	.text.TIM3_Int_Init,"ax",%progbits
  50              		.align	1
  51              		.p2align 2,,3
  52              		.global	TIM3_Int_Init
  53              		.syntax unified
  54              		.thumb
  55              		.thumb_func
  56              		.fpu softvfp
  58              	TIM3_Int_Init:
  59              		@ args = 0, pretend = 0, frame = 0
  60              		@ frame_needed = 0, uses_anonymous_args = 0
ARM GAS  C:\Users\czsta\AppData\Local\Temp\ccXZus5f.s 			page 2


  61              		@ link register save eliminated.
  62 0000 0223     		movs	r3, #2
  63 0002 30B4     		push	{r4, r5}
  64 0004 0A4D     		ldr	r5, .L11
  65 0006 0B4C     		ldr	r4, .L11+4
  66 0008 EA69     		ldr	r2, [r5, #28]
  67 000a 1A43     		orrs	r2, r2, r3
  68 000c EA61     		str	r2, [r5, #28]
  69 000e A085     		strh	r0, [r4, #44]	@ movhi
  70 0010 2185     		strh	r1, [r4, #40]	@ movhi
  71 0012 A189     		ldrh	r1, [r4, #12]
  72 0014 1D22     		movs	r2, #29
  73 0016 41F00101 		orr	r1, r1, #1
  74 001a A181     		strh	r1, [r4, #12]	@ movhi
  75 001c 2088     		ldrh	r0, [r4]
  76 001e 0321     		movs	r1, #3
  77 0020 40F00100 		orr	r0, r0, #1
  78 0024 2080     		strh	r0, [r4]	@ movhi
  79 0026 0120     		movs	r0, #1
  80 0028 30BC     		pop	{r4, r5}
  81 002a FFF7FEBF 		b	MY_NVIC_Init
  82              	.L12:
  83 002e 00BF     		.align	2
  84              	.L11:
  85 0030 00100240 		.word	1073876992
  86 0034 00040040 		.word	1073742848
  88              		.section	.text.TIM1_PWM_Init,"ax",%progbits
  89              		.align	1
  90              		.p2align 2,,3
  91              		.global	TIM1_PWM_Init
  92              		.syntax unified
  93              		.thumb
  94              		.thumb_func
  95              		.fpu softvfp
  97              	TIM1_PWM_Init:
  98              		@ args = 0, pretend = 0, frame = 0
  99              		@ frame_needed = 0, uses_anonymous_args = 0
 100              		@ link register save eliminated.
 101 0000 30B4     		push	{r4, r5}
 102 0002 8025     		movs	r5, #128
 103 0004 144C     		ldr	r4, .L15
 104 0006 154A     		ldr	r2, .L15+4
 105 0008 A369     		ldr	r3, [r4, #24]
 106 000a 43F40063 		orr	r3, r3, #2048
 107 000e A361     		str	r3, [r4, #24]
 108 0010 5468     		ldr	r4, [r2, #4]
 109 0012 134B     		ldr	r3, .L15+8
 110 0014 24F00F04 		bic	r4, r4, #15
 111 0018 5460     		str	r4, [r2, #4]
 112 001a 5468     		ldr	r4, [r2, #4]
 113 001c 44F00B04 		orr	r4, r4, #11
 114 0020 5460     		str	r4, [r2, #4]
 115 0022 9885     		strh	r0, [r3, #44]	@ movhi
 116 0024 1985     		strh	r1, [r3, #40]	@ movhi
 117 0026 1A8B     		ldrh	r2, [r3, #24]
 118 0028 42F07002 		orr	r2, r2, #112
 119 002c 1A83     		strh	r2, [r3, #24]	@ movhi
ARM GAS  C:\Users\czsta\AppData\Local\Temp\ccXZus5f.s 			page 3


 120 002e 1A8B     		ldrh	r2, [r3, #24]
 121 0030 42F00802 		orr	r2, r2, #8
 122 0034 1A83     		strh	r2, [r3, #24]	@ movhi
 123 0036 1A8C     		ldrh	r2, [r3, #32]
 124 0038 42F00102 		orr	r2, r2, #1
 125 003c 1A84     		strh	r2, [r3, #32]	@ movhi
 126 003e B3F84420 		ldrh	r2, [r3, #68]
 127 0042 42F40042 		orr	r2, r2, #32768
 128 0046 A3F84420 		strh	r2, [r3, #68]	@ movhi
 129 004a 1D80     		strh	r5, [r3]	@ movhi
 130 004c 1A88     		ldrh	r2, [r3]
 131 004e 30BC     		pop	{r4, r5}
 132 0050 42F00102 		orr	r2, r2, #1
 133 0054 1A80     		strh	r2, [r3]	@ movhi
 134 0056 7047     		bx	lr
 135              	.L16:
 136              		.align	2
 137              	.L15:
 138 0058 00100240 		.word	1073876992
 139 005c 00080140 		.word	1073809408
 140 0060 002C0140 		.word	1073818624
 142              		.section	.text.TIM2_Cap_Init,"ax",%progbits
 143              		.align	1
 144              		.p2align 2,,3
 145              		.global	TIM2_Cap_Init
 146              		.syntax unified
 147              		.thumb
 148              		.thumb_func
 149              		.fpu softvfp
 151              	TIM2_Cap_Init:
 152              		@ args = 0, pretend = 0, frame = 0
 153              		@ frame_needed = 0, uses_anonymous_args = 0
 154              		@ link register save eliminated.
 155 0000 30B4     		push	{r4, r5}
 156 0002 4FF08044 		mov	r4, #1073741824
 157 0006 1D4B     		ldr	r3, .L19
 158 0008 1D4A     		ldr	r2, .L19+4
 159 000a DD69     		ldr	r5, [r3, #28]
 160 000c 45F00105 		orr	r5, r5, #1
 161 0010 DD61     		str	r5, [r3, #28]
 162 0012 9D69     		ldr	r5, [r3, #24]
 163 0014 45F00405 		orr	r5, r5, #4
 164 0018 9D61     		str	r5, [r3, #24]
 165 001a 1568     		ldr	r5, [r2]
 166 001c 0223     		movs	r3, #2
 167 001e 25F00F05 		bic	r5, r5, #15
 168 0022 1560     		str	r5, [r2]
 169 0024 1568     		ldr	r5, [r2]
 170 0026 45F00805 		orr	r5, r5, #8
 171 002a 1560     		str	r5, [r2]
 172 002c D568     		ldr	r5, [r2, #12]
 173 002e D560     		str	r5, [r2, #12]
 174 0030 A085     		strh	r0, [r4, #44]	@ movhi
 175 0032 2185     		strh	r1, [r4, #40]	@ movhi
 176 0034 228B     		ldrh	r2, [r4, #24]
 177 0036 1846     		mov	r0, r3
 178 0038 42F00102 		orr	r2, r2, #1
ARM GAS  C:\Users\czsta\AppData\Local\Temp\ccXZus5f.s 			page 4


 179 003c 2283     		strh	r2, [r4, #24]	@ movhi
 180 003e 218B     		ldrh	r1, [r4, #24]
 181 0040 1C22     		movs	r2, #28
 182 0042 41F01001 		orr	r1, r1, #16
 183 0046 2183     		strh	r1, [r4, #24]	@ movhi
 184 0048 258B     		ldrh	r5, [r4, #24]
 185 004a 0021     		movs	r1, #0
 186 004c ADB2     		uxth	r5, r5
 187 004e 2583     		strh	r5, [r4, #24]	@ movhi
 188 0050 258C     		ldrh	r5, [r4, #32]
 189 0052 ADB2     		uxth	r5, r5
 190 0054 2584     		strh	r5, [r4, #32]	@ movhi
 191 0056 258C     		ldrh	r5, [r4, #32]
 192 0058 45F00105 		orr	r5, r5, #1
 193 005c 2584     		strh	r5, [r4, #32]	@ movhi
 194 005e A589     		ldrh	r5, [r4, #12]
 195 0060 1D43     		orrs	r5, r5, r3
 196 0062 A581     		strh	r5, [r4, #12]	@ movhi
 197 0064 A589     		ldrh	r5, [r4, #12]
 198 0066 45F00105 		orr	r5, r5, #1
 199 006a A581     		strh	r5, [r4, #12]	@ movhi
 200 006c 2588     		ldrh	r5, [r4]
 201 006e 45F00105 		orr	r5, r5, #1
 202 0072 2580     		strh	r5, [r4]	@ movhi
 203 0074 30BC     		pop	{r4, r5}
 204 0076 FFF7FEBF 		b	MY_NVIC_Init
 205              	.L20:
 206 007a 00BF     		.align	2
 207              	.L19:
 208 007c 00100240 		.word	1073876992
 209 0080 00080140 		.word	1073809408
 211              		.section	.text.TIM2_IRQHandler,"ax",%progbits
 212              		.align	1
 213              		.p2align 2,,3
 214              		.global	TIM2_IRQHandler
 215              		.syntax unified
 216              		.thumb
 217              		.thumb_func
 218              		.fpu softvfp
 220              	TIM2_IRQHandler:
 221              		@ args = 0, pretend = 0, frame = 0
 222              		@ frame_needed = 0, uses_anonymous_args = 0
 223              		@ link register save eliminated.
 224 0000 4FF08043 		mov	r3, #1073741824
 225 0004 2449     		ldr	r1, .L46
 226 0006 1B8A     		ldrh	r3, [r3, #16]
 227 0008 0A78     		ldrb	r2, [r1]	@ zero_extendqisi2
 228 000a 1006     		lsls	r0, r2, #24
 229 000c 26D4     		bmi	.L41
 230 000e 9BB2     		uxth	r3, r3
 231 0010 03F00200 		and	r0, r3, #2
 232 0014 DB07     		lsls	r3, r3, #31
 233 0016 10B4     		push	{r4}
 234 0018 16D4     		bmi	.L44
 235              	.L24:
 236 001a 78B1     		cbz	r0, .L23
 237 001c 5306     		lsls	r3, r2, #25
ARM GAS  C:\Users\czsta\AppData\Local\Temp\ccXZus5f.s 			page 5


 238 001e 24D5     		bpl	.L29
 239 0020 1E4B     		ldr	r3, .L46+4
 240              	.L27:
 241 0022 4FF08040 		mov	r0, #1073741824
 242 0026 62F07F02 		orn	r2, r2, #127
 243 002a 0A70     		strb	r2, [r1]
 244 002c 828E     		ldrh	r2, [r0, #52]
 245 002e 1A80     		strh	r2, [r3]	@ movhi
 246 0030 038C     		ldrh	r3, [r0, #32]
 247 0032 23F00203 		bic	r3, r3, #2
 248 0036 1B04     		lsls	r3, r3, #16
 249 0038 1B0C     		lsrs	r3, r3, #16
 250 003a 0384     		strh	r3, [r0, #32]	@ movhi
 251              	.L23:
 252 003c 4FF08043 		mov	r3, #1073741824
 253 0040 0022     		movs	r2, #0
 254 0042 10BC     		pop	{r4}
 255 0044 1A82     		strh	r2, [r3, #16]	@ movhi
 256 0046 7047     		bx	lr
 257              	.L44:
 258 0048 5406     		lsls	r4, r2, #25
 259 004a 0CD5     		bpl	.L25
 260 004c 02F03F03 		and	r3, r2, #63
 261 0050 3F2B     		cmp	r3, #63
 262 0052 17D0     		beq	.L45
 263 0054 0132     		adds	r2, r2, #1
 264 0056 D2B2     		uxtb	r2, r2
 265 0058 0A70     		strb	r2, [r1]
 266 005a DEE7     		b	.L24
 267              	.L41:
 268 005c 4FF08043 		mov	r3, #1073741824
 269 0060 0022     		movs	r2, #0
 270 0062 1A82     		strh	r2, [r3, #16]	@ movhi
 271 0064 7047     		bx	lr
 272              	.L25:
 273 0066 0028     		cmp	r0, #0
 274 0068 E8D0     		beq	.L23
 275              	.L29:
 276 006a 0022     		movs	r2, #0
 277 006c 4FF08043 		mov	r3, #1073741824
 278 0070 4024     		movs	r4, #64
 279 0072 0A48     		ldr	r0, .L46+4
 280 0074 0C70     		strb	r4, [r1]
 281 0076 0280     		strh	r2, [r0]	@ movhi
 282 0078 9A84     		strh	r2, [r3, #36]	@ movhi
 283 007a 1A8C     		ldrh	r2, [r3, #32]
 284 007c 42F00202 		orr	r2, r2, #2
 285 0080 1A84     		strh	r2, [r3, #32]	@ movhi
 286 0082 DBE7     		b	.L23
 287              	.L45:
 288 0084 4FF6FF74 		movw	r4, #65535
 289 0088 044B     		ldr	r3, .L46+4
 290 008a 42F08002 		orr	r2, r2, #128
 291 008e 0A70     		strb	r2, [r1]
 292 0090 1C80     		strh	r4, [r3]	@ movhi
 293 0092 0028     		cmp	r0, #0
 294 0094 C5D1     		bne	.L27
ARM GAS  C:\Users\czsta\AppData\Local\Temp\ccXZus5f.s 			page 6


 295 0096 D1E7     		b	.L23
 296              	.L47:
 297              		.align	2
 298              	.L46:
 299 0098 00000000 		.word	.LANCHOR0
 300 009c 00000000 		.word	TIM2CH1_CAPTURE_VAL
 302              		.comm	TIM2CH1_CAPTURE_VAL,2,2
 303              		.global	TIM2CH1_CAPTURE_STA
 304              		.section	.bss.TIM2CH1_CAPTURE_STA,"aw",%nobits
 305              		.set	.LANCHOR0,. + 0
 308              	TIM2CH1_CAPTURE_STA:
 309 0000 00       		.space	1
 310              		.ident	"GCC: (GNU Tools for Arm Embedded Processors 7-2018-q2-update) 7.3.1 20180622 (release) [AR
ARM GAS  C:\Users\czsta\AppData\Local\Temp\ccXZus5f.s 			page 7

