ARM GAS  C:\Users\czsta\AppData\Local\Temp\ccAvh7Cj.s 			page 1


   1              		.cpu cortex-m3
   2              		.eabi_attribute 20, 1
   3              		.eabi_attribute 21, 1
   4              		.eabi_attribute 23, 3
   5              		.eabi_attribute 24, 1
   6              		.eabi_attribute 25, 1
   7              		.eabi_attribute 26, 1
   8              		.eabi_attribute 30, 2
   9              		.eabi_attribute 34, 1
  10              		.eabi_attribute 18, 4
  11              		.file	"wdg.c"
  12              		.text
  13              		.section	.text.IWDG_Init,"ax",%progbits
  14              		.align	1
  15              		.p2align 2,,3
  16              		.global	IWDG_Init
  17              		.syntax unified
  18              		.thumb
  19              		.thumb_func
  20              		.fpu softvfp
  22              	IWDG_Init:
  23              		@ args = 0, pretend = 0, frame = 0
  24              		@ frame_needed = 0, uses_anonymous_args = 0
  25              		@ link register save eliminated.
  26 0000 30B4     		push	{r4, r5}
  27 0002 4CF6CC42 		movw	r2, #52428
  28 0006 45F25555 		movw	r5, #21845
  29 000a 4AF6AA24 		movw	r4, #43690
  30 000e 044B     		ldr	r3, .L4
  31 0010 1D60     		str	r5, [r3]
  32 0012 5860     		str	r0, [r3, #4]
  33 0014 9960     		str	r1, [r3, #8]
  34 0016 1C60     		str	r4, [r3]
  35 0018 1A60     		str	r2, [r3]
  36 001a 30BC     		pop	{r4, r5}
  37 001c 7047     		bx	lr
  38              	.L5:
  39 001e 00BF     		.align	2
  40              	.L4:
  41 0020 00300040 		.word	1073754112
  43              		.section	.text.IWDG_Feed,"ax",%progbits
  44              		.align	1
  45              		.p2align 2,,3
  46              		.global	IWDG_Feed
  47              		.syntax unified
  48              		.thumb
  49              		.thumb_func
  50              		.fpu softvfp
  52              	IWDG_Feed:
  53              		@ args = 0, pretend = 0, frame = 0
  54              		@ frame_needed = 0, uses_anonymous_args = 0
  55              		@ link register save eliminated.
  56 0000 4AF6AA22 		movw	r2, #43690
  57 0004 014B     		ldr	r3, .L7
  58 0006 1A60     		str	r2, [r3]
  59 0008 7047     		bx	lr
  60              	.L8:
ARM GAS  C:\Users\czsta\AppData\Local\Temp\ccAvh7Cj.s 			page 2


  61 000a 00BF     		.align	2
  62              	.L7:
  63 000c 00300040 		.word	1073754112
  65              		.section	.text.WWDG_Init,"ax",%progbits
  66              		.align	1
  67              		.p2align 2,,3
  68              		.global	WWDG_Init
  69              		.syntax unified
  70              		.thumb
  71              		.thumb_func
  72              		.fpu softvfp
  74              	WWDG_Init:
  75              		@ args = 0, pretend = 0, frame = 0
  76              		@ frame_needed = 0, uses_anonymous_args = 0
  77 0000 F8B5     		push	{r3, r4, r5, r6, r7, lr}
  78 0002 4FF68077 		movw	r7, #65408
  79 0006 0223     		movs	r3, #2
  80 0008 134D     		ldr	r5, .L11
  81 000a 144E     		ldr	r6, .L11+4
  82 000c EC69     		ldr	r4, [r5, #28]
  83 000e 44F40064 		orr	r4, r4, #2048
  84 0012 EC61     		str	r4, [r5, #28]
  85 0014 3578     		ldrb	r5, [r6]	@ zero_extendqisi2
  86 0016 124C     		ldr	r4, .L11+8
  87 0018 0540     		ands	r5, r5, r0
  88 001a 3570     		strb	r5, [r6]
  89 001c 6068     		ldr	r0, [r4, #4]
  90 001e 40EAC212 		orr	r2, r0, r2, lsl #7
  91 0022 6260     		str	r2, [r4, #4]
  92 0024 6268     		ldr	r2, [r4, #4]
  93 0026 1846     		mov	r0, r3
  94 0028 3A40     		ands	r2, r2, r7
  95 002a 6260     		str	r2, [r4, #4]
  96 002c 6268     		ldr	r2, [r4, #4]
  97 002e 1143     		orrs	r1, r1, r2
  98 0030 6160     		str	r1, [r4, #4]
  99 0032 2168     		ldr	r1, [r4]
 100 0034 0022     		movs	r2, #0
 101 0036 0D43     		orrs	r5, r5, r1
 102 0038 2560     		str	r5, [r4]
 103 003a 2568     		ldr	r5, [r4]
 104 003c 0321     		movs	r1, #3
 105 003e 45F08005 		orr	r5, r5, #128
 106 0042 2560     		str	r5, [r4]
 107 0044 FFF7FEFF 		bl	MY_NVIC_Init
 108 0048 0023     		movs	r3, #0
 109 004a A360     		str	r3, [r4, #8]
 110 004c 6368     		ldr	r3, [r4, #4]
 111 004e 43F40073 		orr	r3, r3, #512
 112 0052 6360     		str	r3, [r4, #4]
 113 0054 F8BD     		pop	{r3, r4, r5, r6, r7, pc}
 114              	.L12:
 115 0056 00BF     		.align	2
 116              	.L11:
 117 0058 00100240 		.word	1073876992
 118 005c 00000000 		.word	.LANCHOR0
 119 0060 002C0040 		.word	1073753088
ARM GAS  C:\Users\czsta\AppData\Local\Temp\ccAvh7Cj.s 			page 3


 121              		.section	.text.WWDG_Set_Counter,"ax",%progbits
 122              		.align	1
 123              		.p2align 2,,3
 124              		.global	WWDG_Set_Counter
 125              		.syntax unified
 126              		.thumb
 127              		.thumb_func
 128              		.fpu softvfp
 130              	WWDG_Set_Counter:
 131              		@ args = 0, pretend = 0, frame = 0
 132              		@ frame_needed = 0, uses_anonymous_args = 0
 133              		@ link register save eliminated.
 134 0000 024B     		ldr	r3, .L14
 135 0002 00F07F00 		and	r0, r0, #127
 136 0006 1860     		str	r0, [r3]
 137 0008 7047     		bx	lr
 138              	.L15:
 139 000a 00BF     		.align	2
 140              	.L14:
 141 000c 002C0040 		.word	1073753088
 143              		.section	.text.WWDG_IRQHandler,"ax",%progbits
 144              		.align	1
 145              		.p2align 2,,3
 146              		.global	WWDG_IRQHandler
 147              		.syntax unified
 148              		.thumb
 149              		.thumb_func
 150              		.fpu softvfp
 152              	WWDG_IRQHandler:
 153              		@ args = 0, pretend = 0, frame = 0
 154              		@ frame_needed = 0, uses_anonymous_args = 0
 155              		@ link register save eliminated.
 156 0000 0020     		movs	r0, #0
 157 0002 074B     		ldr	r3, .L17
 158 0004 0749     		ldr	r1, .L17+4
 159 0006 1B78     		ldrb	r3, [r3]	@ zero_extendqisi2
 160 0008 074A     		ldr	r2, .L17+8
 161 000a 03F07F03 		and	r3, r3, #127
 162 000e 0B60     		str	r3, [r1]
 163 0010 8860     		str	r0, [r1, #8]
 164 0012 1368     		ldr	r3, [r2]
 165 0014 B3FA83F3 		clz	r3, r3
 166 0018 5B09     		lsrs	r3, r3, #5
 167 001a 1360     		str	r3, [r2]
 168 001c 7047     		bx	lr
 169              	.L18:
 170 001e 00BF     		.align	2
 171              	.L17:
 172 0020 00000000 		.word	.LANCHOR0
 173 0024 002C0040 		.word	1073753088
 174 0028 88812242 		.word	1109557640
 176              		.global	WWDG_CNT
 177              		.section	.data.WWDG_CNT,"aw",%progbits
 178              		.set	.LANCHOR0,. + 0
 181              	WWDG_CNT:
 182 0000 7F       		.byte	127
 183              		.ident	"GCC: (GNU Tools for Arm Embedded Processors 7-2018-q2-update) 7.3.1 20180622 (release) [AR
ARM GAS  C:\Users\czsta\AppData\Local\Temp\ccAvh7Cj.s 			page 4


ARM GAS  C:\Users\czsta\AppData\Local\Temp\ccAvh7Cj.s 			page 5

